
/home/john/ysyx-workbench/am-kernels/tests/cpu-tests/build/csr-riscv64-nemu.elf:     file format elf64-littleriscv


Disassembly of section .text:

0000000080000000 <_start>:
    80000000:	00000413          	li	s0,0
    80000004:	00009117          	auipc	sp,0x9
    80000008:	ffc10113          	addi	sp,sp,-4 # 80009000 <_end>
    8000000c:	118000ef          	jal	ra,80000124 <_trm_init>

0000000080000010 <do_event>:
    80000010:	00052783          	lw	a5,0(a0)
    80000014:	ff010113          	addi	sp,sp,-16
    80000018:	00813023          	sd	s0,0(sp)
    8000001c:	00113423          	sd	ra,8(sp)
    80000020:	00100713          	li	a4,1
    80000024:	00058413          	mv	s0,a1
    80000028:	02e78663          	beq	a5,a4,80000054 <do_event+0x44>
    8000002c:	00200713          	li	a4,2
    80000030:	04e79863          	bne	a5,a4,80000080 <do_event+0x70>
    80000034:	1105b783          	ld	a5,272(a1)
    80000038:	00813083          	ld	ra,8(sp)
    8000003c:	00040513          	mv	a0,s0
    80000040:	00478793          	addi	a5,a5,4
    80000044:	10f43823          	sd	a5,272(s0)
    80000048:	00013403          	ld	s0,0(sp)
    8000004c:	01010113          	addi	sp,sp,16
    80000050:	00008067          	ret
    80000054:	00000517          	auipc	a0,0x0
    80000058:	76450513          	addi	a0,a0,1892 # 800007b8 <_etext+0x4>
    8000005c:	328000ef          	jal	ra,80000384 <printf>
    80000060:	11043783          	ld	a5,272(s0)
    80000064:	00813083          	ld	ra,8(sp)
    80000068:	00040513          	mv	a0,s0
    8000006c:	00478793          	addi	a5,a5,4
    80000070:	10f43823          	sd	a5,272(s0)
    80000074:	00013403          	ld	s0,0(sp)
    80000078:	01010113          	addi	sp,sp,16
    8000007c:	00008067          	ret
    80000080:	01900613          	li	a2,25
    80000084:	00000597          	auipc	a1,0x0
    80000088:	75458593          	addi	a1,a1,1876 # 800007d8 <_etext+0x24>
    8000008c:	00000517          	auipc	a0,0x0
    80000090:	79450513          	addi	a0,a0,1940 # 80000820 <_etext+0x6c>
    80000094:	2f0000ef          	jal	ra,80000384 <printf>
    80000098:	00100513          	li	a0,1
    8000009c:	07c000ef          	jal	ra,80000118 <halt>

00000000800000a0 <main>:
    800000a0:	ff010113          	addi	sp,sp,-16
    800000a4:	00113423          	sd	ra,8(sp)
    800000a8:	00500337          	lui	t1,0x500
    800000ac:	0013031b          	addiw	t1,t1,1 # 500001 <_entry_offset+0x500001>
    800000b0:	00d31313          	slli	t1,t1,0xd
    800000b4:	80030313          	addi	t1,t1,-2048
    800000b8:	30031073          	csrw	mstatus,t1
    800000bc:	300022f3          	csrr	t0,mstatus
    800000c0:	305022f3          	csrr	t0,mtvec
    800000c4:	342022f3          	csrr	t0,mcause
    800000c8:	341022f3          	csrr	t0,mepc
    800000cc:	00000517          	auipc	a0,0x0
    800000d0:	f4450513          	addi	a0,a0,-188 # 80000010 <do_event>
    800000d4:	150000ef          	jal	ra,80000224 <cte_init>
    800000d8:	305022f3          	csrr	t0,mtvec
    800000dc:	00b00393          	li	t2,11
    800000e0:	34239073          	csrw	mcause,t2
    800000e4:	342022f3          	csrr	t0,mcause
    800000e8:	00800393          	li	t2,8
    800000ec:	34139073          	csrw	mepc,t2
    800000f0:	341022f3          	csrr	t0,mepc
    800000f4:	00000073          	ecall
    800000f8:	00813083          	ld	ra,8(sp)
    800000fc:	00000513          	li	a0,0
    80000100:	01010113          	addi	sp,sp,16
    80000104:	00008067          	ret

0000000080000108 <putch>:
    80000108:	00500793          	li	a5,5
    8000010c:	01d79793          	slli	a5,a5,0x1d
    80000110:	3ea78c23          	sb	a0,1016(a5)
    80000114:	00008067          	ret

0000000080000118 <halt>:
    80000118:	00050513          	mv	a0,a0
    8000011c:	00100073          	ebreak
    80000120:	0000006f          	j	80000120 <halt+0x8>

0000000080000124 <_trm_init>:
    80000124:	ff010113          	addi	sp,sp,-16
    80000128:	00000517          	auipc	a0,0x0
    8000012c:	7e050513          	addi	a0,a0,2016 # 80000908 <mainargs>
    80000130:	00113423          	sd	ra,8(sp)
    80000134:	f6dff0ef          	jal	ra,800000a0 <main>
    80000138:	00050513          	mv	a0,a0
    8000013c:	00100073          	ebreak
    80000140:	0000006f          	j	80000140 <_trm_init+0x1c>

0000000080000144 <__am_irq_handle>:
    80000144:	00000797          	auipc	a5,0x0
    80000148:	7cc7b783          	ld	a5,1996(a5) # 80000910 <user_handler>
    8000014c:	00050593          	mv	a1,a0
    80000150:	08078e63          	beqz	a5,800001ec <__am_irq_handle+0xa8>
    80000154:	10053683          	ld	a3,256(a0)
    80000158:	fb010113          	addi	sp,sp,-80
    8000015c:	04113423          	sd	ra,72(sp)
    80000160:	02013023          	sd	zero,32(sp)
    80000164:	02013423          	sd	zero,40(sp)
    80000168:	02013823          	sd	zero,48(sp)
    8000016c:	02013c23          	sd	zero,56(sp)
    80000170:	00b00713          	li	a4,11
    80000174:	04e68263          	beq	a3,a4,800001b8 <__am_irq_handle+0x74>
    80000178:	00400713          	li	a4,4
    8000017c:	02e12023          	sw	a4,32(sp)
    80000180:	02013703          	ld	a4,32(sp)
    80000184:	00010513          	mv	a0,sp
    80000188:	00e13023          	sd	a4,0(sp)
    8000018c:	02813703          	ld	a4,40(sp)
    80000190:	00e13423          	sd	a4,8(sp)
    80000194:	03013703          	ld	a4,48(sp)
    80000198:	00e13823          	sd	a4,16(sp)
    8000019c:	03813703          	ld	a4,56(sp)
    800001a0:	00e13c23          	sd	a4,24(sp)
    800001a4:	000780e7          	jalr	a5
    800001a8:	04050e63          	beqz	a0,80000204 <__am_irq_handle+0xc0>
    800001ac:	04813083          	ld	ra,72(sp)
    800001b0:	05010113          	addi	sp,sp,80
    800001b4:	00008067          	ret
    800001b8:	08853683          	ld	a3,136(a0)
    800001bc:	00100713          	li	a4,1
    800001c0:	02e68c63          	beq	a3,a4,800001f8 <__am_irq_handle+0xb4>
    800001c4:	01300713          	li	a4,19
    800001c8:	02d76463          	bltu	a4,a3,800001f0 <__am_irq_handle+0xac>
    800001cc:	00082737          	lui	a4,0x82
    800001d0:	39d70713          	addi	a4,a4,925 # 8239d <_entry_offset+0x8239d>
    800001d4:	00d75733          	srl	a4,a4,a3
    800001d8:	00177713          	andi	a4,a4,1
    800001dc:	fa0702e3          	beqz	a4,80000180 <__am_irq_handle+0x3c>
    800001e0:	00200713          	li	a4,2
    800001e4:	02e12023          	sw	a4,32(sp)
    800001e8:	f99ff06f          	j	80000180 <__am_irq_handle+0x3c>
    800001ec:	00008067          	ret
    800001f0:	fff00713          	li	a4,-1
    800001f4:	f8e696e3          	bne	a3,a4,80000180 <__am_irq_handle+0x3c>
    800001f8:	00100713          	li	a4,1
    800001fc:	02e12023          	sw	a4,32(sp)
    80000200:	f81ff06f          	j	80000180 <__am_irq_handle+0x3c>
    80000204:	02500613          	li	a2,37
    80000208:	00000597          	auipc	a1,0x0
    8000020c:	63858593          	addi	a1,a1,1592 # 80000840 <_etext+0x8c>
    80000210:	00000517          	auipc	a0,0x0
    80000214:	61050513          	addi	a0,a0,1552 # 80000820 <_etext+0x6c>
    80000218:	16c000ef          	jal	ra,80000384 <printf>
    8000021c:	00100513          	li	a0,1
    80000220:	ef9ff0ef          	jal	ra,80000118 <halt>

0000000080000224 <cte_init>:
    80000224:	00050793          	mv	a5,a0
    80000228:	00000717          	auipc	a4,0x0
    8000022c:	02070713          	addi	a4,a4,32 # 80000248 <__am_asm_trap>
    80000230:	30571073          	csrw	mtvec,a4
    80000234:	00100513          	li	a0,1
    80000238:	00000717          	auipc	a4,0x0
    8000023c:	6cf73c23          	sd	a5,1752(a4) # 80000910 <user_handler>
    80000240:	00008067          	ret
    80000244:	0000                	.2byte	0x0
	...

0000000080000248 <__am_asm_trap>:
    80000248:	ee010113          	addi	sp,sp,-288
    8000024c:	00113423          	sd	ra,8(sp)
    80000250:	00313c23          	sd	gp,24(sp)
    80000254:	02413023          	sd	tp,32(sp)
    80000258:	02513423          	sd	t0,40(sp)
    8000025c:	02613823          	sd	t1,48(sp)
    80000260:	02713c23          	sd	t2,56(sp)
    80000264:	04813023          	sd	s0,64(sp)
    80000268:	04913423          	sd	s1,72(sp)
    8000026c:	04a13823          	sd	a0,80(sp)
    80000270:	04b13c23          	sd	a1,88(sp)
    80000274:	06c13023          	sd	a2,96(sp)
    80000278:	06d13423          	sd	a3,104(sp)
    8000027c:	06e13823          	sd	a4,112(sp)
    80000280:	06f13c23          	sd	a5,120(sp)
    80000284:	09013023          	sd	a6,128(sp)
    80000288:	09113423          	sd	a7,136(sp)
    8000028c:	09213823          	sd	s2,144(sp)
    80000290:	09313c23          	sd	s3,152(sp)
    80000294:	0b413023          	sd	s4,160(sp)
    80000298:	0b513423          	sd	s5,168(sp)
    8000029c:	0b613823          	sd	s6,176(sp)
    800002a0:	0b713c23          	sd	s7,184(sp)
    800002a4:	0d813023          	sd	s8,192(sp)
    800002a8:	0d913423          	sd	s9,200(sp)
    800002ac:	0da13823          	sd	s10,208(sp)
    800002b0:	0db13c23          	sd	s11,216(sp)
    800002b4:	0fc13023          	sd	t3,224(sp)
    800002b8:	0fd13423          	sd	t4,232(sp)
    800002bc:	0fe13823          	sd	t5,240(sp)
    800002c0:	0ff13c23          	sd	t6,248(sp)
    800002c4:	342022f3          	csrr	t0,mcause
    800002c8:	30002373          	csrr	t1,mstatus
    800002cc:	341023f3          	csrr	t2,mepc
    800002d0:	10513023          	sd	t0,256(sp)
    800002d4:	10613423          	sd	t1,264(sp)
    800002d8:	10713823          	sd	t2,272(sp)
    800002dc:	00020537          	lui	a0,0x20
    800002e0:	00a36333          	or	t1,t1,a0
    800002e4:	30031073          	csrw	mstatus,t1
    800002e8:	00010513          	mv	a0,sp
    800002ec:	e59ff0ef          	jal	ra,80000144 <__am_irq_handle>
    800002f0:	10813303          	ld	t1,264(sp)
    800002f4:	11013383          	ld	t2,272(sp)
    800002f8:	30031073          	csrw	mstatus,t1
    800002fc:	34139073          	csrw	mepc,t2
    80000300:	00813083          	ld	ra,8(sp)
    80000304:	01813183          	ld	gp,24(sp)
    80000308:	02013203          	ld	tp,32(sp)
    8000030c:	02813283          	ld	t0,40(sp)
    80000310:	03013303          	ld	t1,48(sp)
    80000314:	03813383          	ld	t2,56(sp)
    80000318:	04013403          	ld	s0,64(sp)
    8000031c:	04813483          	ld	s1,72(sp)
    80000320:	05013503          	ld	a0,80(sp)
    80000324:	05813583          	ld	a1,88(sp)
    80000328:	06013603          	ld	a2,96(sp)
    8000032c:	06813683          	ld	a3,104(sp)
    80000330:	07013703          	ld	a4,112(sp)
    80000334:	07813783          	ld	a5,120(sp)
    80000338:	08013803          	ld	a6,128(sp)
    8000033c:	08813883          	ld	a7,136(sp)
    80000340:	09013903          	ld	s2,144(sp)
    80000344:	09813983          	ld	s3,152(sp)
    80000348:	0a013a03          	ld	s4,160(sp)
    8000034c:	0a813a83          	ld	s5,168(sp)
    80000350:	0b013b03          	ld	s6,176(sp)
    80000354:	0b813b83          	ld	s7,184(sp)
    80000358:	0c013c03          	ld	s8,192(sp)
    8000035c:	0c813c83          	ld	s9,200(sp)
    80000360:	0d013d03          	ld	s10,208(sp)
    80000364:	0d813d83          	ld	s11,216(sp)
    80000368:	0e013e03          	ld	t3,224(sp)
    8000036c:	0e813e83          	ld	t4,232(sp)
    80000370:	0f013f03          	ld	t5,240(sp)
    80000374:	0f813f83          	ld	t6,248(sp)
    80000378:	12010113          	addi	sp,sp,288
    8000037c:	30200073          	mret
    80000380:	0000                	.2byte	0x0
	...

0000000080000384 <printf>:
    80000384:	f5010113          	addi	sp,sp,-176
    80000388:	06813023          	sd	s0,96(sp)
    8000038c:	03513c23          	sd	s5,56(sp)
    80000390:	06113423          	sd	ra,104(sp)
    80000394:	04913c23          	sd	s1,88(sp)
    80000398:	05213823          	sd	s2,80(sp)
    8000039c:	05313423          	sd	s3,72(sp)
    800003a0:	05413023          	sd	s4,64(sp)
    800003a4:	03613823          	sd	s6,48(sp)
    800003a8:	00050413          	mv	s0,a0
    800003ac:	00054503          	lbu	a0,0(a0) # 20000 <_entry_offset+0x20000>
    800003b0:	07810a93          	addi	s5,sp,120
    800003b4:	06b13c23          	sd	a1,120(sp)
    800003b8:	08c13023          	sd	a2,128(sp)
    800003bc:	08d13423          	sd	a3,136(sp)
    800003c0:	08e13823          	sd	a4,144(sp)
    800003c4:	08f13c23          	sd	a5,152(sp)
    800003c8:	0b013023          	sd	a6,160(sp)
    800003cc:	0b113423          	sd	a7,168(sp)
    800003d0:	01513423          	sd	s5,8(sp)
    800003d4:	02050663          	beqz	a0,80000400 <printf+0x7c>
    800003d8:	02500913          	li	s2,37
    800003dc:	02000a13          	li	s4,32
    800003e0:	00000997          	auipc	s3,0x0
    800003e4:	4a498993          	addi	s3,s3,1188 # 80000884 <_etext+0xd0>
    800003e8:	02410493          	addi	s1,sp,36
    800003ec:	05250063          	beq	a0,s2,8000042c <printf+0xa8>
    800003f0:	d19ff0ef          	jal	ra,80000108 <putch>
    800003f4:	00140413          	addi	s0,s0,1
    800003f8:	00044503          	lbu	a0,0(s0)
    800003fc:	fe0518e3          	bnez	a0,800003ec <printf+0x68>
    80000400:	06813083          	ld	ra,104(sp)
    80000404:	06013403          	ld	s0,96(sp)
    80000408:	05813483          	ld	s1,88(sp)
    8000040c:	05013903          	ld	s2,80(sp)
    80000410:	04813983          	ld	s3,72(sp)
    80000414:	04013a03          	ld	s4,64(sp)
    80000418:	03813a83          	ld	s5,56(sp)
    8000041c:	03013b03          	ld	s6,48(sp)
    80000420:	00000513          	li	a0,0
    80000424:	0b010113          	addi	sp,sp,176
    80000428:	00008067          	ret
    8000042c:	00144783          	lbu	a5,1(s0)
    80000430:	00240413          	addi	s0,s0,2
    80000434:	fa87879b          	addiw	a5,a5,-88
    80000438:	0ff7f793          	zext.b	a5,a5
    8000043c:	fafa6ee3          	bltu	s4,a5,800003f8 <printf+0x74>
    80000440:	00279793          	slli	a5,a5,0x2
    80000444:	013787b3          	add	a5,a5,s3
    80000448:	0007a783          	lw	a5,0(a5)
    8000044c:	013787b3          	add	a5,a5,s3
    80000450:	00078067          	jr	a5
    80000454:	000aa703          	lw	a4,0(s5)
    80000458:	00013823          	sd	zero,16(sp)
    8000045c:	00013c23          	sd	zero,24(sp)
    80000460:	02013023          	sd	zero,32(sp)
    80000464:	02013423          	sd	zero,40(sp)
    80000468:	008a8a93          	addi	s5,s5,8
    8000046c:	00070693          	mv	a3,a4
    80000470:	00000793          	li	a5,0
    80000474:	32070463          	beqz	a4,8000079c <printf+0x418>
    80000478:	0046d69b          	srliw	a3,a3,0x4
    8000047c:	00078613          	mv	a2,a5
    80000480:	0017879b          	addiw	a5,a5,1
    80000484:	fe069ae3          	bnez	a3,80000478 <printf+0xf4>
    80000488:	01010693          	addi	a3,sp,16
    8000048c:	00f687b3          	add	a5,a3,a5
    80000490:	02061613          	slli	a2,a2,0x20
    80000494:	ffe78513          	addi	a0,a5,-2
    80000498:	02065613          	srli	a2,a2,0x20
    8000049c:	fff78793          	addi	a5,a5,-1
    800004a0:	40c50533          	sub	a0,a0,a2
    800004a4:	00900813          	li	a6,9
    800004a8:	00f77593          	andi	a1,a4,15
    800004ac:	03058613          	addi	a2,a1,48
    800004b0:	00b87463          	bgeu	a6,a1,800004b8 <printf+0x134>
    800004b4:	05758613          	addi	a2,a1,87
    800004b8:	00c78023          	sb	a2,0(a5)
    800004bc:	fff78793          	addi	a5,a5,-1
    800004c0:	0047571b          	srliw	a4,a4,0x4
    800004c4:	fef512e3          	bne	a0,a5,800004a8 <printf+0x124>
    800004c8:	01010b13          	addi	s6,sp,16
    800004cc:	0100006f          	j	800004dc <printf+0x158>
    800004d0:	001b0b13          	addi	s6,s6,1
    800004d4:	c35ff0ef          	jal	ra,80000108 <putch>
    800004d8:	f36480e3          	beq	s1,s6,800003f8 <printf+0x74>
    800004dc:	000b4503          	lbu	a0,0(s6)
    800004e0:	fe0518e3          	bnez	a0,800004d0 <printf+0x14c>
    800004e4:	f15ff06f          	j	800003f8 <printf+0x74>
    800004e8:	000aa683          	lw	a3,0(s5)
    800004ec:	00013823          	sd	zero,16(sp)
    800004f0:	00013c23          	sd	zero,24(sp)
    800004f4:	02013023          	sd	zero,32(sp)
    800004f8:	02013423          	sd	zero,40(sp)
    800004fc:	008a8a93          	addi	s5,s5,8
    80000500:	00068713          	mv	a4,a3
    80000504:	00000793          	li	a5,0
    80000508:	00a00813          	li	a6,10
    8000050c:	00900593          	li	a1,9
    80000510:	28068c63          	beqz	a3,800007a8 <printf+0x424>
    80000514:	0007061b          	sext.w	a2,a4
    80000518:	00078513          	mv	a0,a5
    8000051c:	0307573b          	divuw	a4,a4,a6
    80000520:	0017879b          	addiw	a5,a5,1
    80000524:	fec5e8e3          	bltu	a1,a2,80000514 <printf+0x190>
    80000528:	00f10713          	addi	a4,sp,15
    8000052c:	02051513          	slli	a0,a0,0x20
    80000530:	00f705b3          	add	a1,a4,a5
    80000534:	02055513          	srli	a0,a0,0x20
    80000538:	01010713          	addi	a4,sp,16
    8000053c:	00f707b3          	add	a5,a4,a5
    80000540:	40a585b3          	sub	a1,a1,a0
    80000544:	00a00613          	li	a2,10
    80000548:	fff78793          	addi	a5,a5,-1
    8000054c:	02c6f73b          	remuw	a4,a3,a2
    80000550:	0307071b          	addiw	a4,a4,48
    80000554:	00e78023          	sb	a4,0(a5)
    80000558:	02c6d6bb          	divuw	a3,a3,a2
    8000055c:	fef596e3          	bne	a1,a5,80000548 <printf+0x1c4>
    80000560:	01010b13          	addi	s6,sp,16
    80000564:	0100006f          	j	80000574 <printf+0x1f0>
    80000568:	001b0b13          	addi	s6,s6,1
    8000056c:	b9dff0ef          	jal	ra,80000108 <putch>
    80000570:	e96484e3          	beq	s1,s6,800003f8 <printf+0x74>
    80000574:	000b4503          	lbu	a0,0(s6)
    80000578:	fe0518e3          	bnez	a0,80000568 <printf+0x1e4>
    8000057c:	e7dff06f          	j	800003f8 <printf+0x74>
    80000580:	000abb03          	ld	s6,0(s5)
    80000584:	008a8a93          	addi	s5,s5,8
    80000588:	000b4503          	lbu	a0,0(s6)
    8000058c:	e60506e3          	beqz	a0,800003f8 <printf+0x74>
    80000590:	001b0b13          	addi	s6,s6,1
    80000594:	b75ff0ef          	jal	ra,80000108 <putch>
    80000598:	000b4503          	lbu	a0,0(s6)
    8000059c:	fe051ae3          	bnez	a0,80000590 <printf+0x20c>
    800005a0:	e59ff06f          	j	800003f8 <printf+0x74>
    800005a4:	000aa683          	lw	a3,0(s5)
    800005a8:	00013823          	sd	zero,16(sp)
    800005ac:	00013c23          	sd	zero,24(sp)
    800005b0:	02013023          	sd	zero,32(sp)
    800005b4:	02013423          	sd	zero,40(sp)
    800005b8:	008a8a93          	addi	s5,s5,8
    800005bc:	00068713          	mv	a4,a3
    800005c0:	00000793          	li	a5,0
    800005c4:	1c068663          	beqz	a3,80000790 <printf+0x40c>
    800005c8:	0037571b          	srliw	a4,a4,0x3
    800005cc:	00078593          	mv	a1,a5
    800005d0:	0017879b          	addiw	a5,a5,1
    800005d4:	fe071ae3          	bnez	a4,800005c8 <printf+0x244>
    800005d8:	00f10713          	addi	a4,sp,15
    800005dc:	02059593          	slli	a1,a1,0x20
    800005e0:	00f70633          	add	a2,a4,a5
    800005e4:	0205d593          	srli	a1,a1,0x20
    800005e8:	01010713          	addi	a4,sp,16
    800005ec:	00f707b3          	add	a5,a4,a5
    800005f0:	40b60633          	sub	a2,a2,a1
    800005f4:	0076f713          	andi	a4,a3,7
    800005f8:	0307071b          	addiw	a4,a4,48
    800005fc:	fee78fa3          	sb	a4,-1(a5)
    80000600:	fff78793          	addi	a5,a5,-1
    80000604:	0036d69b          	srliw	a3,a3,0x3
    80000608:	fef616e3          	bne	a2,a5,800005f4 <printf+0x270>
    8000060c:	01010b13          	addi	s6,sp,16
    80000610:	0100006f          	j	80000620 <printf+0x29c>
    80000614:	001b0b13          	addi	s6,s6,1
    80000618:	af1ff0ef          	jal	ra,80000108 <putch>
    8000061c:	dc9b0ee3          	beq	s6,s1,800003f8 <printf+0x74>
    80000620:	000b4503          	lbu	a0,0(s6)
    80000624:	fe0518e3          	bnez	a0,80000614 <printf+0x290>
    80000628:	dd1ff06f          	j	800003f8 <printf+0x74>
    8000062c:	000aa683          	lw	a3,0(s5)
    80000630:	00013823          	sd	zero,16(sp)
    80000634:	00013c23          	sd	zero,24(sp)
    80000638:	02013023          	sd	zero,32(sp)
    8000063c:	02013423          	sd	zero,40(sp)
    80000640:	008a8a93          	addi	s5,s5,8
    80000644:	14068063          	beqz	a3,80000784 <printf+0x400>
    80000648:	01010593          	addi	a1,sp,16
    8000064c:	0006da63          	bgez	a3,80000660 <printf+0x2dc>
    80000650:	02d00793          	li	a5,45
    80000654:	00f10823          	sb	a5,16(sp)
    80000658:	40d006bb          	negw	a3,a3
    8000065c:	01110593          	addi	a1,sp,17
    80000660:	00068713          	mv	a4,a3
    80000664:	00000793          	li	a5,0
    80000668:	00a00513          	li	a0,10
    8000066c:	02a7473b          	divw	a4,a4,a0
    80000670:	00078613          	mv	a2,a5
    80000674:	0017879b          	addiw	a5,a5,1
    80000678:	fe071ae3          	bnez	a4,8000066c <printf+0x2e8>
    8000067c:	02061613          	slli	a2,a2,0x20
    80000680:	ffe78713          	addi	a4,a5,-2
    80000684:	02065613          	srli	a2,a2,0x20
    80000688:	40c70733          	sub	a4,a4,a2
    8000068c:	fff78793          	addi	a5,a5,-1
    80000690:	00f587b3          	add	a5,a1,a5
    80000694:	00a00613          	li	a2,10
    80000698:	00e585b3          	add	a1,a1,a4
    8000069c:	02c6e73b          	remw	a4,a3,a2
    800006a0:	fff78793          	addi	a5,a5,-1
    800006a4:	0307071b          	addiw	a4,a4,48
    800006a8:	00e780a3          	sb	a4,1(a5)
    800006ac:	02c6c6bb          	divw	a3,a3,a2
    800006b0:	fef596e3          	bne	a1,a5,8000069c <printf+0x318>
    800006b4:	01010b13          	addi	s6,sp,16
    800006b8:	0100006f          	j	800006c8 <printf+0x344>
    800006bc:	001b0b13          	addi	s6,s6,1
    800006c0:	a49ff0ef          	jal	ra,80000108 <putch>
    800006c4:	d29b0ae3          	beq	s6,s1,800003f8 <printf+0x74>
    800006c8:	000b4503          	lbu	a0,0(s6)
    800006cc:	fe0518e3          	bnez	a0,800006bc <printf+0x338>
    800006d0:	d29ff06f          	j	800003f8 <printf+0x74>
    800006d4:	000ac503          	lbu	a0,0(s5)
    800006d8:	008a8a93          	addi	s5,s5,8
    800006dc:	a2dff0ef          	jal	ra,80000108 <putch>
    800006e0:	d19ff06f          	j	800003f8 <printf+0x74>
    800006e4:	000aa703          	lw	a4,0(s5)
    800006e8:	00013823          	sd	zero,16(sp)
    800006ec:	00013c23          	sd	zero,24(sp)
    800006f0:	02013023          	sd	zero,32(sp)
    800006f4:	02013423          	sd	zero,40(sp)
    800006f8:	008a8a93          	addi	s5,s5,8
    800006fc:	00070693          	mv	a3,a4
    80000700:	00000793          	li	a5,0
    80000704:	06070a63          	beqz	a4,80000778 <printf+0x3f4>
    80000708:	0046d69b          	srliw	a3,a3,0x4
    8000070c:	00078613          	mv	a2,a5
    80000710:	0017879b          	addiw	a5,a5,1
    80000714:	fe069ae3          	bnez	a3,80000708 <printf+0x384>
    80000718:	01010693          	addi	a3,sp,16
    8000071c:	00f687b3          	add	a5,a3,a5
    80000720:	02061613          	slli	a2,a2,0x20
    80000724:	ffe78513          	addi	a0,a5,-2
    80000728:	02065613          	srli	a2,a2,0x20
    8000072c:	fff78793          	addi	a5,a5,-1
    80000730:	40c50533          	sub	a0,a0,a2
    80000734:	00900813          	li	a6,9
    80000738:	00f77593          	andi	a1,a4,15
    8000073c:	03058613          	addi	a2,a1,48
    80000740:	00b87463          	bgeu	a6,a1,80000748 <printf+0x3c4>
    80000744:	03758613          	addi	a2,a1,55
    80000748:	00c78023          	sb	a2,0(a5)
    8000074c:	fff78793          	addi	a5,a5,-1
    80000750:	0047571b          	srliw	a4,a4,0x4
    80000754:	fef512e3          	bne	a0,a5,80000738 <printf+0x3b4>
    80000758:	01010b13          	addi	s6,sp,16
    8000075c:	0100006f          	j	8000076c <printf+0x3e8>
    80000760:	001b0b13          	addi	s6,s6,1
    80000764:	9a5ff0ef          	jal	ra,80000108 <putch>
    80000768:	c96488e3          	beq	s1,s6,800003f8 <printf+0x74>
    8000076c:	000b4503          	lbu	a0,0(s6)
    80000770:	fe0518e3          	bnez	a0,80000760 <printf+0x3dc>
    80000774:	c85ff06f          	j	800003f8 <printf+0x74>
    80000778:	03000793          	li	a5,48
    8000077c:	00f10823          	sb	a5,16(sp)
    80000780:	fd9ff06f          	j	80000758 <printf+0x3d4>
    80000784:	03000793          	li	a5,48
    80000788:	00f10823          	sb	a5,16(sp)
    8000078c:	f29ff06f          	j	800006b4 <printf+0x330>
    80000790:	03000793          	li	a5,48
    80000794:	00f10823          	sb	a5,16(sp)
    80000798:	e75ff06f          	j	8000060c <printf+0x288>
    8000079c:	03000793          	li	a5,48
    800007a0:	00f10823          	sb	a5,16(sp)
    800007a4:	d25ff06f          	j	800004c8 <printf+0x144>
    800007a8:	03000793          	li	a5,48
    800007ac:	00f10823          	sb	a5,16(sp)
    800007b0:	db1ff06f          	j	80000560 <printf+0x1dc>
