
rv64ui-p-srlw:     file format elf64-littleriscv


Disassembly of section .text.init:

0000000080000000 <_start>:
    80000000:	0480006f          	j	80000048 <reset_vector>

0000000080000004 <trap_vector>:
    80000004:	34202f73          	csrr	t5,mcause
    80000008:	00800f93          	li	t6,8
    8000000c:	03ff0863          	beq	t5,t6,8000003c <write_tohost>
    80000010:	00900f93          	li	t6,9
    80000014:	03ff0463          	beq	t5,t6,8000003c <write_tohost>
    80000018:	00b00f93          	li	t6,11
    8000001c:	03ff0063          	beq	t5,t6,8000003c <write_tohost>
    80000020:	00000f13          	li	t5,0
    80000024:	000f0463          	beqz	t5,8000002c <trap_vector+0x28>
    80000028:	000f0067          	jr	t5
    8000002c:	34202f73          	csrr	t5,mcause
    80000030:	000f5463          	bgez	t5,80000038 <handle_exception>
    80000034:	0040006f          	j	80000038 <handle_exception>

0000000080000038 <handle_exception>:
    80000038:	5391e193          	or	gp,gp,1337

000000008000003c <write_tohost>:
    8000003c:	00001f17          	auipc	t5,0x1
    80000040:	fc3f2223          	sw	gp,-60(t5) # 80001000 <tohost>
    80000044:	ff9ff06f          	j	8000003c <write_tohost>

0000000080000048 <reset_vector>:
    80000048:	00000093          	li	ra,0
    8000004c:	00000113          	li	sp,0
    80000050:	00000193          	li	gp,0
    80000054:	00000213          	li	tp,0
    80000058:	00000293          	li	t0,0
    8000005c:	00000313          	li	t1,0
    80000060:	00000393          	li	t2,0
    80000064:	00000413          	li	s0,0
    80000068:	00000493          	li	s1,0
    8000006c:	00000513          	li	a0,0
    80000070:	00000593          	li	a1,0
    80000074:	00000613          	li	a2,0
    80000078:	00000693          	li	a3,0
    8000007c:	00000713          	li	a4,0
    80000080:	00000793          	li	a5,0
    80000084:	00000813          	li	a6,0
    80000088:	00000893          	li	a7,0
    8000008c:	00000913          	li	s2,0
    80000090:	00000993          	li	s3,0
    80000094:	00000a13          	li	s4,0
    80000098:	00000a93          	li	s5,0
    8000009c:	00000b13          	li	s6,0
    800000a0:	00000b93          	li	s7,0
    800000a4:	00000c13          	li	s8,0
    800000a8:	00000c93          	li	s9,0
    800000ac:	00000d13          	li	s10,0
    800000b0:	00000d93          	li	s11,0
    800000b4:	00000e13          	li	t3,0
    800000b8:	00000e93          	li	t4,0
    800000bc:	00000f13          	li	t5,0
    800000c0:	00000f93          	li	t6,0

00000000800000c4 <test_2>:
    800000c4:	00200193          	li	gp,2
    800000c8:	800000b7          	lui	ra,0x80000
    800000cc:	00000113          	li	sp,0
    800000d0:	0020d73b          	srlw	a4,ra,sp
    800000d4:	800003b7          	lui	t2,0x80000
    800000d8:	60771863          	bne	a4,t2,800006e8 <fail>

00000000800000dc <test_3>:
    800000dc:	00300193          	li	gp,3
    800000e0:	800000b7          	lui	ra,0x80000
    800000e4:	00100113          	li	sp,1
    800000e8:	0020d73b          	srlw	a4,ra,sp
    800000ec:	400003b7          	lui	t2,0x40000
    800000f0:	5e771c63          	bne	a4,t2,800006e8 <fail>

00000000800000f4 <test_4>:
    800000f4:	00400193          	li	gp,4
    800000f8:	800000b7          	lui	ra,0x80000
    800000fc:	00700113          	li	sp,7
    80000100:	0020d73b          	srlw	a4,ra,sp
    80000104:	010003b7          	lui	t2,0x1000
    80000108:	5e771063          	bne	a4,t2,800006e8 <fail>

000000008000010c <test_5>:
    8000010c:	00500193          	li	gp,5
    80000110:	800000b7          	lui	ra,0x80000
    80000114:	00e00113          	li	sp,14
    80000118:	0020d73b          	srlw	a4,ra,sp
    8000011c:	000203b7          	lui	t2,0x20
    80000120:	5c771463          	bne	a4,t2,800006e8 <fail>

0000000080000124 <test_6>:
    80000124:	00600193          	li	gp,6
    80000128:	800000b7          	lui	ra,0x80000
    8000012c:	0010809b          	addw	ra,ra,1 # ffffffff80000001 <_end+0xfffffffeffffe001>
    80000130:	01f00113          	li	sp,31
    80000134:	0020d73b          	srlw	a4,ra,sp
    80000138:	00100393          	li	t2,1
    8000013c:	5a771663          	bne	a4,t2,800006e8 <fail>

0000000080000140 <test_7>:
    80000140:	00700193          	li	gp,7
    80000144:	fff00093          	li	ra,-1
    80000148:	00000113          	li	sp,0
    8000014c:	0020d73b          	srlw	a4,ra,sp
    80000150:	fff00393          	li	t2,-1
    80000154:	58771a63          	bne	a4,t2,800006e8 <fail>

0000000080000158 <test_8>:
    80000158:	00800193          	li	gp,8
    8000015c:	fff00093          	li	ra,-1
    80000160:	00100113          	li	sp,1
    80000164:	0020d73b          	srlw	a4,ra,sp
    80000168:	800003b7          	lui	t2,0x80000
    8000016c:	fff3839b          	addw	t2,t2,-1 # 7fffffff <_start-0x1>
    80000170:	56771c63          	bne	a4,t2,800006e8 <fail>

0000000080000174 <test_9>:
    80000174:	00900193          	li	gp,9
    80000178:	fff00093          	li	ra,-1
    8000017c:	00700113          	li	sp,7
    80000180:	0020d73b          	srlw	a4,ra,sp
    80000184:	020003b7          	lui	t2,0x2000
    80000188:	fff3839b          	addw	t2,t2,-1 # 1ffffff <_start-0x7e000001>
    8000018c:	54771e63          	bne	a4,t2,800006e8 <fail>

0000000080000190 <test_10>:
    80000190:	00a00193          	li	gp,10
    80000194:	fff00093          	li	ra,-1
    80000198:	00e00113          	li	sp,14
    8000019c:	0020d73b          	srlw	a4,ra,sp
    800001a0:	000403b7          	lui	t2,0x40
    800001a4:	fff3839b          	addw	t2,t2,-1 # 3ffff <_start-0x7ffc0001>
    800001a8:	54771063          	bne	a4,t2,800006e8 <fail>

00000000800001ac <test_11>:
    800001ac:	00b00193          	li	gp,11
    800001b0:	fff00093          	li	ra,-1
    800001b4:	01f00113          	li	sp,31
    800001b8:	0020d73b          	srlw	a4,ra,sp
    800001bc:	00100393          	li	t2,1
    800001c0:	52771463          	bne	a4,t2,800006e8 <fail>

00000000800001c4 <test_12>:
    800001c4:	00c00193          	li	gp,12
    800001c8:	212120b7          	lui	ra,0x21212
    800001cc:	1210809b          	addw	ra,ra,289 # 21212121 <_start-0x5edededf>
    800001d0:	00000113          	li	sp,0
    800001d4:	0020d73b          	srlw	a4,ra,sp
    800001d8:	212123b7          	lui	t2,0x21212
    800001dc:	1213839b          	addw	t2,t2,289 # 21212121 <_start-0x5edededf>
    800001e0:	50771463          	bne	a4,t2,800006e8 <fail>

00000000800001e4 <test_13>:
    800001e4:	00d00193          	li	gp,13
    800001e8:	212120b7          	lui	ra,0x21212
    800001ec:	1210809b          	addw	ra,ra,289 # 21212121 <_start-0x5edededf>
    800001f0:	00100113          	li	sp,1
    800001f4:	0020d73b          	srlw	a4,ra,sp
    800001f8:	109093b7          	lui	t2,0x10909
    800001fc:	0903839b          	addw	t2,t2,144 # 10909090 <_start-0x6f6f6f70>
    80000200:	4e771463          	bne	a4,t2,800006e8 <fail>

0000000080000204 <test_14>:
    80000204:	00e00193          	li	gp,14
    80000208:	212120b7          	lui	ra,0x21212
    8000020c:	1210809b          	addw	ra,ra,289 # 21212121 <_start-0x5edededf>
    80000210:	00700113          	li	sp,7
    80000214:	0020d73b          	srlw	a4,ra,sp
    80000218:	004243b7          	lui	t2,0x424
    8000021c:	2423839b          	addw	t2,t2,578 # 424242 <_start-0x7fbdbdbe>
    80000220:	4c771463          	bne	a4,t2,800006e8 <fail>

0000000080000224 <test_15>:
    80000224:	00f00193          	li	gp,15
    80000228:	212120b7          	lui	ra,0x21212
    8000022c:	1210809b          	addw	ra,ra,289 # 21212121 <_start-0x5edededf>
    80000230:	00e00113          	li	sp,14
    80000234:	0020d73b          	srlw	a4,ra,sp
    80000238:	000083b7          	lui	t2,0x8
    8000023c:	4843839b          	addw	t2,t2,1156 # 8484 <_start-0x7fff7b7c>
    80000240:	4a771463          	bne	a4,t2,800006e8 <fail>

0000000080000244 <test_16>:
    80000244:	01000193          	li	gp,16
    80000248:	212120b7          	lui	ra,0x21212
    8000024c:	1210809b          	addw	ra,ra,289 # 21212121 <_start-0x5edededf>
    80000250:	01f00113          	li	sp,31
    80000254:	0020d73b          	srlw	a4,ra,sp
    80000258:	00000393          	li	t2,0
    8000025c:	48771663          	bne	a4,t2,800006e8 <fail>

0000000080000260 <test_17>:
    80000260:	01100193          	li	gp,17
    80000264:	212120b7          	lui	ra,0x21212
    80000268:	1210809b          	addw	ra,ra,289 # 21212121 <_start-0x5edededf>
    8000026c:	fe000113          	li	sp,-32
    80000270:	0020d73b          	srlw	a4,ra,sp
    80000274:	212123b7          	lui	t2,0x21212
    80000278:	1213839b          	addw	t2,t2,289 # 21212121 <_start-0x5edededf>
    8000027c:	46771663          	bne	a4,t2,800006e8 <fail>

0000000080000280 <test_18>:
    80000280:	01200193          	li	gp,18
    80000284:	212120b7          	lui	ra,0x21212
    80000288:	1210809b          	addw	ra,ra,289 # 21212121 <_start-0x5edededf>
    8000028c:	fe100113          	li	sp,-31
    80000290:	0020d73b          	srlw	a4,ra,sp
    80000294:	109093b7          	lui	t2,0x10909
    80000298:	0903839b          	addw	t2,t2,144 # 10909090 <_start-0x6f6f6f70>
    8000029c:	44771663          	bne	a4,t2,800006e8 <fail>

00000000800002a0 <test_19>:
    800002a0:	01300193          	li	gp,19
    800002a4:	212120b7          	lui	ra,0x21212
    800002a8:	1210809b          	addw	ra,ra,289 # 21212121 <_start-0x5edededf>
    800002ac:	fe700113          	li	sp,-25
    800002b0:	0020d73b          	srlw	a4,ra,sp
    800002b4:	004243b7          	lui	t2,0x424
    800002b8:	2423839b          	addw	t2,t2,578 # 424242 <_start-0x7fbdbdbe>
    800002bc:	42771663          	bne	a4,t2,800006e8 <fail>

00000000800002c0 <test_20>:
    800002c0:	01400193          	li	gp,20
    800002c4:	212120b7          	lui	ra,0x21212
    800002c8:	1210809b          	addw	ra,ra,289 # 21212121 <_start-0x5edededf>
    800002cc:	fee00113          	li	sp,-18
    800002d0:	0020d73b          	srlw	a4,ra,sp
    800002d4:	000083b7          	lui	t2,0x8
    800002d8:	4843839b          	addw	t2,t2,1156 # 8484 <_start-0x7fff7b7c>
    800002dc:	40771663          	bne	a4,t2,800006e8 <fail>

00000000800002e0 <test_21>:
    800002e0:	01500193          	li	gp,21
    800002e4:	212120b7          	lui	ra,0x21212
    800002e8:	1210809b          	addw	ra,ra,289 # 21212121 <_start-0x5edededf>
    800002ec:	fff00113          	li	sp,-1
    800002f0:	0020d73b          	srlw	a4,ra,sp
    800002f4:	00000393          	li	t2,0
    800002f8:	3e771863          	bne	a4,t2,800006e8 <fail>

00000000800002fc <test_44>:
    800002fc:	02c00193          	li	gp,44
    80000300:	fff120b7          	lui	ra,0xfff12
    80000304:	3450809b          	addw	ra,ra,837 # fffffffffff12345 <_end+0xffffffff7ff10345>
    80000308:	00c09093          	sll	ra,ra,0xc
    8000030c:	67808093          	add	ra,ra,1656
    80000310:	00000113          	li	sp,0
    80000314:	0020d73b          	srlw	a4,ra,sp
    80000318:	123453b7          	lui	t2,0x12345
    8000031c:	6783839b          	addw	t2,t2,1656 # 12345678 <_start-0x6dcba988>
    80000320:	3c771463          	bne	a4,t2,800006e8 <fail>

0000000080000324 <test_45>:
    80000324:	02d00193          	li	gp,45
    80000328:	fff120b7          	lui	ra,0xfff12
    8000032c:	3450809b          	addw	ra,ra,837 # fffffffffff12345 <_end+0xffffffff7ff10345>
    80000330:	00c09093          	sll	ra,ra,0xc
    80000334:	67808093          	add	ra,ra,1656
    80000338:	00400113          	li	sp,4
    8000033c:	0020d73b          	srlw	a4,ra,sp
    80000340:	012343b7          	lui	t2,0x1234
    80000344:	5673839b          	addw	t2,t2,1383 # 1234567 <_start-0x7edcba99>
    80000348:	3a771063          	bne	a4,t2,800006e8 <fail>

000000008000034c <test_46>:
    8000034c:	02e00193          	li	gp,46
    80000350:	000920b7          	lui	ra,0x92
    80000354:	3450809b          	addw	ra,ra,837 # 92345 <_start-0x7ff6dcbb>
    80000358:	00c09093          	sll	ra,ra,0xc
    8000035c:	67808093          	add	ra,ra,1656
    80000360:	00000113          	li	sp,0
    80000364:	0020d73b          	srlw	a4,ra,sp
    80000368:	923453b7          	lui	t2,0x92345
    8000036c:	6783839b          	addw	t2,t2,1656 # ffffffff92345678 <_end+0xffffffff12343678>
    80000370:	36771c63          	bne	a4,t2,800006e8 <fail>

0000000080000374 <test_47>:
    80000374:	02f00193          	li	gp,47
    80000378:	000920b7          	lui	ra,0x92
    8000037c:	3450809b          	addw	ra,ra,837 # 92345 <_start-0x7ff6dcbb>
    80000380:	00c09093          	sll	ra,ra,0xc
    80000384:	67808093          	add	ra,ra,1656
    80000388:	00400113          	li	sp,4
    8000038c:	0020d73b          	srlw	a4,ra,sp
    80000390:	092343b7          	lui	t2,0x9234
    80000394:	5673839b          	addw	t2,t2,1383 # 9234567 <_start-0x76dcba99>
    80000398:	34771863          	bne	a4,t2,800006e8 <fail>

000000008000039c <test_22>:
    8000039c:	01600193          	li	gp,22
    800003a0:	800000b7          	lui	ra,0x80000
    800003a4:	00700113          	li	sp,7
    800003a8:	0020d0bb          	srlw	ra,ra,sp
    800003ac:	010003b7          	lui	t2,0x1000
    800003b0:	32709c63          	bne	ra,t2,800006e8 <fail>

00000000800003b4 <test_23>:
    800003b4:	01700193          	li	gp,23
    800003b8:	800000b7          	lui	ra,0x80000
    800003bc:	00e00113          	li	sp,14
    800003c0:	0020d13b          	srlw	sp,ra,sp
    800003c4:	000203b7          	lui	t2,0x20
    800003c8:	32711063          	bne	sp,t2,800006e8 <fail>

00000000800003cc <test_24>:
    800003cc:	01800193          	li	gp,24
    800003d0:	00700093          	li	ra,7
    800003d4:	0010d0bb          	srlw	ra,ra,ra
    800003d8:	00000393          	li	t2,0
    800003dc:	30709663          	bne	ra,t2,800006e8 <fail>

00000000800003e0 <test_25>:
    800003e0:	01900193          	li	gp,25
    800003e4:	00000213          	li	tp,0
    800003e8:	800000b7          	lui	ra,0x80000
    800003ec:	00700113          	li	sp,7
    800003f0:	0020d73b          	srlw	a4,ra,sp
    800003f4:	00070313          	mv	t1,a4
    800003f8:	00120213          	add	tp,tp,1 # 1 <_start-0x7fffffff>
    800003fc:	00200293          	li	t0,2
    80000400:	fe5214e3          	bne	tp,t0,800003e8 <test_25+0x8>
    80000404:	010003b7          	lui	t2,0x1000
    80000408:	2e731063          	bne	t1,t2,800006e8 <fail>

000000008000040c <test_26>:
    8000040c:	01a00193          	li	gp,26
    80000410:	00000213          	li	tp,0
    80000414:	800000b7          	lui	ra,0x80000
    80000418:	00e00113          	li	sp,14
    8000041c:	0020d73b          	srlw	a4,ra,sp
    80000420:	00000013          	nop
    80000424:	00070313          	mv	t1,a4
    80000428:	00120213          	add	tp,tp,1 # 1 <_start-0x7fffffff>
    8000042c:	00200293          	li	t0,2
    80000430:	fe5212e3          	bne	tp,t0,80000414 <test_26+0x8>
    80000434:	000203b7          	lui	t2,0x20
    80000438:	2a731863          	bne	t1,t2,800006e8 <fail>

000000008000043c <test_27>:
    8000043c:	01b00193          	li	gp,27
    80000440:	00000213          	li	tp,0
    80000444:	800000b7          	lui	ra,0x80000
    80000448:	01f00113          	li	sp,31
    8000044c:	0020d73b          	srlw	a4,ra,sp
    80000450:	00000013          	nop
    80000454:	00000013          	nop
    80000458:	00070313          	mv	t1,a4
    8000045c:	00120213          	add	tp,tp,1 # 1 <_start-0x7fffffff>
    80000460:	00200293          	li	t0,2
    80000464:	fe5210e3          	bne	tp,t0,80000444 <test_27+0x8>
    80000468:	00100393          	li	t2,1
    8000046c:	26731e63          	bne	t1,t2,800006e8 <fail>

0000000080000470 <test_28>:
    80000470:	01c00193          	li	gp,28
    80000474:	00000213          	li	tp,0
    80000478:	800000b7          	lui	ra,0x80000
    8000047c:	00700113          	li	sp,7
    80000480:	0020d73b          	srlw	a4,ra,sp
    80000484:	00120213          	add	tp,tp,1 # 1 <_start-0x7fffffff>
    80000488:	00200293          	li	t0,2
    8000048c:	fe5216e3          	bne	tp,t0,80000478 <test_28+0x8>
    80000490:	010003b7          	lui	t2,0x1000
    80000494:	24771a63          	bne	a4,t2,800006e8 <fail>

0000000080000498 <test_29>:
    80000498:	01d00193          	li	gp,29
    8000049c:	00000213          	li	tp,0
    800004a0:	800000b7          	lui	ra,0x80000
    800004a4:	00e00113          	li	sp,14
    800004a8:	00000013          	nop
    800004ac:	0020d73b          	srlw	a4,ra,sp
    800004b0:	00120213          	add	tp,tp,1 # 1 <_start-0x7fffffff>
    800004b4:	00200293          	li	t0,2
    800004b8:	fe5214e3          	bne	tp,t0,800004a0 <test_29+0x8>
    800004bc:	000203b7          	lui	t2,0x20
    800004c0:	22771463          	bne	a4,t2,800006e8 <fail>

00000000800004c4 <test_30>:
    800004c4:	01e00193          	li	gp,30
    800004c8:	00000213          	li	tp,0
    800004cc:	800000b7          	lui	ra,0x80000
    800004d0:	01f00113          	li	sp,31
    800004d4:	00000013          	nop
    800004d8:	00000013          	nop
    800004dc:	0020d73b          	srlw	a4,ra,sp
    800004e0:	00120213          	add	tp,tp,1 # 1 <_start-0x7fffffff>
    800004e4:	00200293          	li	t0,2
    800004e8:	fe5212e3          	bne	tp,t0,800004cc <test_30+0x8>
    800004ec:	00100393          	li	t2,1
    800004f0:	1e771c63          	bne	a4,t2,800006e8 <fail>

00000000800004f4 <test_31>:
    800004f4:	01f00193          	li	gp,31
    800004f8:	00000213          	li	tp,0
    800004fc:	800000b7          	lui	ra,0x80000
    80000500:	00000013          	nop
    80000504:	00700113          	li	sp,7
    80000508:	0020d73b          	srlw	a4,ra,sp
    8000050c:	00120213          	add	tp,tp,1 # 1 <_start-0x7fffffff>
    80000510:	00200293          	li	t0,2
    80000514:	fe5214e3          	bne	tp,t0,800004fc <test_31+0x8>
    80000518:	010003b7          	lui	t2,0x1000
    8000051c:	1c771663          	bne	a4,t2,800006e8 <fail>

0000000080000520 <test_32>:
    80000520:	02000193          	li	gp,32
    80000524:	00000213          	li	tp,0
    80000528:	800000b7          	lui	ra,0x80000
    8000052c:	00000013          	nop
    80000530:	00e00113          	li	sp,14
    80000534:	00000013          	nop
    80000538:	0020d73b          	srlw	a4,ra,sp
    8000053c:	00120213          	add	tp,tp,1 # 1 <_start-0x7fffffff>
    80000540:	00200293          	li	t0,2
    80000544:	fe5212e3          	bne	tp,t0,80000528 <test_32+0x8>
    80000548:	000203b7          	lui	t2,0x20
    8000054c:	18771e63          	bne	a4,t2,800006e8 <fail>

0000000080000550 <test_33>:
    80000550:	02100193          	li	gp,33
    80000554:	00000213          	li	tp,0
    80000558:	800000b7          	lui	ra,0x80000
    8000055c:	00000013          	nop
    80000560:	00000013          	nop
    80000564:	01f00113          	li	sp,31
    80000568:	0020d73b          	srlw	a4,ra,sp
    8000056c:	00120213          	add	tp,tp,1 # 1 <_start-0x7fffffff>
    80000570:	00200293          	li	t0,2
    80000574:	fe5212e3          	bne	tp,t0,80000558 <test_33+0x8>
    80000578:	00100393          	li	t2,1
    8000057c:	16771663          	bne	a4,t2,800006e8 <fail>

0000000080000580 <test_34>:
    80000580:	02200193          	li	gp,34
    80000584:	00000213          	li	tp,0
    80000588:	00700113          	li	sp,7
    8000058c:	800000b7          	lui	ra,0x80000
    80000590:	0020d73b          	srlw	a4,ra,sp
    80000594:	00120213          	add	tp,tp,1 # 1 <_start-0x7fffffff>
    80000598:	00200293          	li	t0,2
    8000059c:	fe5216e3          	bne	tp,t0,80000588 <test_34+0x8>
    800005a0:	010003b7          	lui	t2,0x1000
    800005a4:	14771263          	bne	a4,t2,800006e8 <fail>

00000000800005a8 <test_35>:
    800005a8:	02300193          	li	gp,35
    800005ac:	00000213          	li	tp,0
    800005b0:	00e00113          	li	sp,14
    800005b4:	800000b7          	lui	ra,0x80000
    800005b8:	00000013          	nop
    800005bc:	0020d73b          	srlw	a4,ra,sp
    800005c0:	00120213          	add	tp,tp,1 # 1 <_start-0x7fffffff>
    800005c4:	00200293          	li	t0,2
    800005c8:	fe5214e3          	bne	tp,t0,800005b0 <test_35+0x8>
    800005cc:	000203b7          	lui	t2,0x20
    800005d0:	10771c63          	bne	a4,t2,800006e8 <fail>

00000000800005d4 <test_36>:
    800005d4:	02400193          	li	gp,36
    800005d8:	00000213          	li	tp,0
    800005dc:	01f00113          	li	sp,31
    800005e0:	800000b7          	lui	ra,0x80000
    800005e4:	00000013          	nop
    800005e8:	00000013          	nop
    800005ec:	0020d73b          	srlw	a4,ra,sp
    800005f0:	00120213          	add	tp,tp,1 # 1 <_start-0x7fffffff>
    800005f4:	00200293          	li	t0,2
    800005f8:	fe5212e3          	bne	tp,t0,800005dc <test_36+0x8>
    800005fc:	00100393          	li	t2,1
    80000600:	0e771463          	bne	a4,t2,800006e8 <fail>

0000000080000604 <test_37>:
    80000604:	02500193          	li	gp,37
    80000608:	00000213          	li	tp,0
    8000060c:	00700113          	li	sp,7
    80000610:	00000013          	nop
    80000614:	800000b7          	lui	ra,0x80000
    80000618:	0020d73b          	srlw	a4,ra,sp
    8000061c:	00120213          	add	tp,tp,1 # 1 <_start-0x7fffffff>
    80000620:	00200293          	li	t0,2
    80000624:	fe5214e3          	bne	tp,t0,8000060c <test_37+0x8>
    80000628:	010003b7          	lui	t2,0x1000
    8000062c:	0a771e63          	bne	a4,t2,800006e8 <fail>

0000000080000630 <test_38>:
    80000630:	02600193          	li	gp,38
    80000634:	00000213          	li	tp,0
    80000638:	00e00113          	li	sp,14
    8000063c:	00000013          	nop
    80000640:	800000b7          	lui	ra,0x80000
    80000644:	00000013          	nop
    80000648:	0020d73b          	srlw	a4,ra,sp
    8000064c:	00120213          	add	tp,tp,1 # 1 <_start-0x7fffffff>
    80000650:	00200293          	li	t0,2
    80000654:	fe5212e3          	bne	tp,t0,80000638 <test_38+0x8>
    80000658:	000203b7          	lui	t2,0x20
    8000065c:	08771663          	bne	a4,t2,800006e8 <fail>

0000000080000660 <test_39>:
    80000660:	02700193          	li	gp,39
    80000664:	00000213          	li	tp,0
    80000668:	01f00113          	li	sp,31
    8000066c:	00000013          	nop
    80000670:	00000013          	nop
    80000674:	800000b7          	lui	ra,0x80000
    80000678:	0020d73b          	srlw	a4,ra,sp
    8000067c:	00120213          	add	tp,tp,1 # 1 <_start-0x7fffffff>
    80000680:	00200293          	li	t0,2
    80000684:	fe5212e3          	bne	tp,t0,80000668 <test_39+0x8>
    80000688:	00100393          	li	t2,1
    8000068c:	04771e63          	bne	a4,t2,800006e8 <fail>

0000000080000690 <test_40>:
    80000690:	02800193          	li	gp,40
    80000694:	00f00093          	li	ra,15
    80000698:	0010513b          	srlw	sp,zero,ra
    8000069c:	00000393          	li	t2,0
    800006a0:	04711463          	bne	sp,t2,800006e8 <fail>

00000000800006a4 <test_41>:
    800006a4:	02900193          	li	gp,41
    800006a8:	02000093          	li	ra,32
    800006ac:	0000d13b          	srlw	sp,ra,zero
    800006b0:	02000393          	li	t2,32
    800006b4:	02711a63          	bne	sp,t2,800006e8 <fail>

00000000800006b8 <test_42>:
    800006b8:	02a00193          	li	gp,42
    800006bc:	000050bb          	srlw	ra,zero,zero
    800006c0:	00000393          	li	t2,0
    800006c4:	02709263          	bne	ra,t2,800006e8 <fail>

00000000800006c8 <test_43>:
    800006c8:	02b00193          	li	gp,43
    800006cc:	40000093          	li	ra,1024
    800006d0:	00001137          	lui	sp,0x1
    800006d4:	8001011b          	addw	sp,sp,-2048 # 800 <_start-0x7ffff800>
    800006d8:	0020d03b          	srlw	zero,ra,sp
    800006dc:	00000393          	li	t2,0
    800006e0:	00701463          	bne	zero,t2,800006e8 <fail>
    800006e4:	00301e63          	bne	zero,gp,80000700 <pass>

00000000800006e8 <fail>:
    800006e8:	00018063          	beqz	gp,800006e8 <fail>
    800006ec:	00119193          	sll	gp,gp,0x1
    800006f0:	0011e193          	or	gp,gp,1
    800006f4:	05d00893          	li	a7,93
    800006f8:	00018513          	mv	a0,gp
    800006fc:	00100073          	ebreak

0000000080000700 <pass>:
    80000700:	00100193          	li	gp,1
    80000704:	05d00893          	li	a7,93
    80000708:	00000513          	li	a0,0
    8000070c:	00100073          	ebreak
    80000710:	0000                	.2byte	0x0
    80000712:	0000                	.2byte	0x0
    80000714:	0000                	.2byte	0x0
    80000716:	0000                	.2byte	0x0
    80000718:	0000                	.2byte	0x0
    8000071a:	0000                	.2byte	0x0
    8000071c:	0000                	.2byte	0x0
    8000071e:	0000                	.2byte	0x0
    80000720:	0000                	.2byte	0x0
    80000722:	0000                	.2byte	0x0
    80000724:	0000                	.2byte	0x0
    80000726:	0000                	.2byte	0x0
    80000728:	0000                	.2byte	0x0
    8000072a:	0000                	.2byte	0x0
    8000072c:	0000                	.2byte	0x0
    8000072e:	0000                	.2byte	0x0
    80000730:	0000                	.2byte	0x0
    80000732:	0000                	.2byte	0x0
    80000734:	0000                	.2byte	0x0
    80000736:	0000                	.2byte	0x0
    80000738:	0000                	.2byte	0x0
    8000073a:	0000                	.2byte	0x0
    8000073c:	0000                	.2byte	0x0
    8000073e:	0000                	.2byte	0x0
