
rv64ui-p-lh:     file format elf64-littleriscv


Disassembly of section .text.init:

0000000080000000 <_start>:
    80000000:	0480006f          	j	80000048 <reset_vector>

0000000080000004 <trap_vector>:
    80000004:	34202f73          	csrr	t5,mcause
    80000008:	00800f93          	li	t6,8
    8000000c:	03ff0863          	beq	t5,t6,8000003c <write_tohost>
    80000010:	00900f93          	li	t6,9
    80000014:	03ff0463          	beq	t5,t6,8000003c <write_tohost>
    80000018:	00b00f93          	li	t6,11
    8000001c:	03ff0063          	beq	t5,t6,8000003c <write_tohost>
    80000020:	00000f13          	li	t5,0
    80000024:	000f0463          	beqz	t5,8000002c <trap_vector+0x28>
    80000028:	000f0067          	jr	t5
    8000002c:	34202f73          	csrr	t5,mcause
    80000030:	000f5463          	bgez	t5,80000038 <handle_exception>
    80000034:	0040006f          	j	80000038 <handle_exception>

0000000080000038 <handle_exception>:
    80000038:	5391e193          	or	gp,gp,1337

000000008000003c <write_tohost>:
    8000003c:	00001f17          	auipc	t5,0x1
    80000040:	fc3f2223          	sw	gp,-60(t5) # 80001000 <tohost>
    80000044:	ff9ff06f          	j	8000003c <write_tohost>

0000000080000048 <reset_vector>:
    80000048:	00000093          	li	ra,0
    8000004c:	00000113          	li	sp,0
    80000050:	00000193          	li	gp,0
    80000054:	00000213          	li	tp,0
    80000058:	00000293          	li	t0,0
    8000005c:	00000313          	li	t1,0
    80000060:	00000393          	li	t2,0
    80000064:	00000413          	li	s0,0
    80000068:	00000493          	li	s1,0
    8000006c:	00000513          	li	a0,0
    80000070:	00000593          	li	a1,0
    80000074:	00000613          	li	a2,0
    80000078:	00000693          	li	a3,0
    8000007c:	00000713          	li	a4,0
    80000080:	00000793          	li	a5,0
    80000084:	00000813          	li	a6,0
    80000088:	00000893          	li	a7,0
    8000008c:	00000913          	li	s2,0
    80000090:	00000993          	li	s3,0
    80000094:	00000a13          	li	s4,0
    80000098:	00000a93          	li	s5,0
    8000009c:	00000b13          	li	s6,0
    800000a0:	00000b93          	li	s7,0
    800000a4:	00000c13          	li	s8,0
    800000a8:	00000c93          	li	s9,0
    800000ac:	00000d13          	li	s10,0
    800000b0:	00000d93          	li	s11,0
    800000b4:	00000e13          	li	t3,0
    800000b8:	00000e93          	li	t4,0
    800000bc:	00000f13          	li	t5,0
    800000c0:	00000f93          	li	t6,0

00000000800000c4 <test_2>:
    800000c4:	00200193          	li	gp,2
    800000c8:	0ff00793          	li	a5,255
    800000cc:	00002097          	auipc	ra,0x2
    800000d0:	f3408093          	add	ra,ra,-204 # 80002000 <begin_signature>
    800000d4:	00009703          	lh	a4,0(ra)
    800000d8:	0ff00393          	li	t2,255
    800000dc:	28771263          	bne	a4,t2,80000360 <fail>

00000000800000e0 <test_3>:
    800000e0:	00300193          	li	gp,3
    800000e4:	f0000793          	li	a5,-256
    800000e8:	00002097          	auipc	ra,0x2
    800000ec:	f1808093          	add	ra,ra,-232 # 80002000 <begin_signature>
    800000f0:	00209703          	lh	a4,2(ra)
    800000f4:	f0000393          	li	t2,-256
    800000f8:	26771463          	bne	a4,t2,80000360 <fail>

00000000800000fc <test_4>:
    800000fc:	00400193          	li	gp,4
    80000100:	000017b7          	lui	a5,0x1
    80000104:	ff07879b          	addw	a5,a5,-16 # ff0 <_start-0x7ffff010>
    80000108:	00002097          	auipc	ra,0x2
    8000010c:	ef808093          	add	ra,ra,-264 # 80002000 <begin_signature>
    80000110:	00409703          	lh	a4,4(ra)
    80000114:	000013b7          	lui	t2,0x1
    80000118:	ff03839b          	addw	t2,t2,-16 # ff0 <_start-0x7ffff010>
    8000011c:	24771263          	bne	a4,t2,80000360 <fail>

0000000080000120 <test_5>:
    80000120:	00500193          	li	gp,5
    80000124:	fffff7b7          	lui	a5,0xfffff
    80000128:	00f7879b          	addw	a5,a5,15 # fffffffffffff00f <_end+0xffffffff7fffcfff>
    8000012c:	00002097          	auipc	ra,0x2
    80000130:	ed408093          	add	ra,ra,-300 # 80002000 <begin_signature>
    80000134:	00609703          	lh	a4,6(ra)
    80000138:	fffff3b7          	lui	t2,0xfffff
    8000013c:	00f3839b          	addw	t2,t2,15 # fffffffffffff00f <_end+0xffffffff7fffcfff>
    80000140:	22771063          	bne	a4,t2,80000360 <fail>

0000000080000144 <test_6>:
    80000144:	00600193          	li	gp,6
    80000148:	0ff00793          	li	a5,255
    8000014c:	00002097          	auipc	ra,0x2
    80000150:	eba08093          	add	ra,ra,-326 # 80002006 <tdat4>
    80000154:	ffa09703          	lh	a4,-6(ra)
    80000158:	0ff00393          	li	t2,255
    8000015c:	20771263          	bne	a4,t2,80000360 <fail>

0000000080000160 <test_7>:
    80000160:	00700193          	li	gp,7
    80000164:	f0000793          	li	a5,-256
    80000168:	00002097          	auipc	ra,0x2
    8000016c:	e9e08093          	add	ra,ra,-354 # 80002006 <tdat4>
    80000170:	ffc09703          	lh	a4,-4(ra)
    80000174:	f0000393          	li	t2,-256
    80000178:	1e771463          	bne	a4,t2,80000360 <fail>

000000008000017c <test_8>:
    8000017c:	00800193          	li	gp,8
    80000180:	000017b7          	lui	a5,0x1
    80000184:	ff07879b          	addw	a5,a5,-16 # ff0 <_start-0x7ffff010>
    80000188:	00002097          	auipc	ra,0x2
    8000018c:	e7e08093          	add	ra,ra,-386 # 80002006 <tdat4>
    80000190:	ffe09703          	lh	a4,-2(ra)
    80000194:	000013b7          	lui	t2,0x1
    80000198:	ff03839b          	addw	t2,t2,-16 # ff0 <_start-0x7ffff010>
    8000019c:	1c771263          	bne	a4,t2,80000360 <fail>

00000000800001a0 <test_9>:
    800001a0:	00900193          	li	gp,9
    800001a4:	fffff7b7          	lui	a5,0xfffff
    800001a8:	00f7879b          	addw	a5,a5,15 # fffffffffffff00f <_end+0xffffffff7fffcfff>
    800001ac:	00002097          	auipc	ra,0x2
    800001b0:	e5a08093          	add	ra,ra,-422 # 80002006 <tdat4>
    800001b4:	00009703          	lh	a4,0(ra)
    800001b8:	fffff3b7          	lui	t2,0xfffff
    800001bc:	00f3839b          	addw	t2,t2,15 # fffffffffffff00f <_end+0xffffffff7fffcfff>
    800001c0:	1a771063          	bne	a4,t2,80000360 <fail>

00000000800001c4 <test_10>:
    800001c4:	00a00193          	li	gp,10
    800001c8:	00002097          	auipc	ra,0x2
    800001cc:	e3808093          	add	ra,ra,-456 # 80002000 <begin_signature>
    800001d0:	fe008093          	add	ra,ra,-32
    800001d4:	02009283          	lh	t0,32(ra)
    800001d8:	0ff00393          	li	t2,255
    800001dc:	18729263          	bne	t0,t2,80000360 <fail>

00000000800001e0 <test_11>:
    800001e0:	00b00193          	li	gp,11
    800001e4:	00002097          	auipc	ra,0x2
    800001e8:	e1c08093          	add	ra,ra,-484 # 80002000 <begin_signature>
    800001ec:	ffb08093          	add	ra,ra,-5
    800001f0:	00709283          	lh	t0,7(ra)
    800001f4:	f0000393          	li	t2,-256
    800001f8:	16729463          	bne	t0,t2,80000360 <fail>

00000000800001fc <test_12>:
    800001fc:	00c00193          	li	gp,12
    80000200:	00000213          	li	tp,0
    80000204:	00002097          	auipc	ra,0x2
    80000208:	dfe08093          	add	ra,ra,-514 # 80002002 <tdat2>
    8000020c:	00209703          	lh	a4,2(ra)
    80000210:	00070313          	mv	t1,a4
    80000214:	000013b7          	lui	t2,0x1
    80000218:	ff03839b          	addw	t2,t2,-16 # ff0 <_start-0x7ffff010>
    8000021c:	14731263          	bne	t1,t2,80000360 <fail>
    80000220:	00120213          	add	tp,tp,1 # 1 <_start-0x7fffffff>
    80000224:	00200293          	li	t0,2
    80000228:	fc521ee3          	bne	tp,t0,80000204 <test_12+0x8>

000000008000022c <test_13>:
    8000022c:	00d00193          	li	gp,13
    80000230:	00000213          	li	tp,0
    80000234:	00002097          	auipc	ra,0x2
    80000238:	dd008093          	add	ra,ra,-560 # 80002004 <tdat3>
    8000023c:	00209703          	lh	a4,2(ra)
    80000240:	00000013          	nop
    80000244:	00070313          	mv	t1,a4
    80000248:	fffff3b7          	lui	t2,0xfffff
    8000024c:	00f3839b          	addw	t2,t2,15 # fffffffffffff00f <_end+0xffffffff7fffcfff>
    80000250:	10731863          	bne	t1,t2,80000360 <fail>
    80000254:	00120213          	add	tp,tp,1 # 1 <_start-0x7fffffff>
    80000258:	00200293          	li	t0,2
    8000025c:	fc521ce3          	bne	tp,t0,80000234 <test_13+0x8>

0000000080000260 <test_14>:
    80000260:	00e00193          	li	gp,14
    80000264:	00000213          	li	tp,0
    80000268:	00002097          	auipc	ra,0x2
    8000026c:	d9808093          	add	ra,ra,-616 # 80002000 <begin_signature>
    80000270:	00209703          	lh	a4,2(ra)
    80000274:	00000013          	nop
    80000278:	00000013          	nop
    8000027c:	00070313          	mv	t1,a4
    80000280:	f0000393          	li	t2,-256
    80000284:	0c731e63          	bne	t1,t2,80000360 <fail>
    80000288:	00120213          	add	tp,tp,1 # 1 <_start-0x7fffffff>
    8000028c:	00200293          	li	t0,2
    80000290:	fc521ce3          	bne	tp,t0,80000268 <test_14+0x8>

0000000080000294 <test_15>:
    80000294:	00f00193          	li	gp,15
    80000298:	00000213          	li	tp,0
    8000029c:	00002097          	auipc	ra,0x2
    800002a0:	d6608093          	add	ra,ra,-666 # 80002002 <tdat2>
    800002a4:	00209703          	lh	a4,2(ra)
    800002a8:	000013b7          	lui	t2,0x1
    800002ac:	ff03839b          	addw	t2,t2,-16 # ff0 <_start-0x7ffff010>
    800002b0:	0a771863          	bne	a4,t2,80000360 <fail>
    800002b4:	00120213          	add	tp,tp,1 # 1 <_start-0x7fffffff>
    800002b8:	00200293          	li	t0,2
    800002bc:	fe5210e3          	bne	tp,t0,8000029c <test_15+0x8>

00000000800002c0 <test_16>:
    800002c0:	01000193          	li	gp,16
    800002c4:	00000213          	li	tp,0
    800002c8:	00002097          	auipc	ra,0x2
    800002cc:	d3c08093          	add	ra,ra,-708 # 80002004 <tdat3>
    800002d0:	00000013          	nop
    800002d4:	00209703          	lh	a4,2(ra)
    800002d8:	fffff3b7          	lui	t2,0xfffff
    800002dc:	00f3839b          	addw	t2,t2,15 # fffffffffffff00f <_end+0xffffffff7fffcfff>
    800002e0:	08771063          	bne	a4,t2,80000360 <fail>
    800002e4:	00120213          	add	tp,tp,1 # 1 <_start-0x7fffffff>
    800002e8:	00200293          	li	t0,2
    800002ec:	fc521ee3          	bne	tp,t0,800002c8 <test_16+0x8>

00000000800002f0 <test_17>:
    800002f0:	01100193          	li	gp,17
    800002f4:	00000213          	li	tp,0
    800002f8:	00002097          	auipc	ra,0x2
    800002fc:	d0808093          	add	ra,ra,-760 # 80002000 <begin_signature>
    80000300:	00000013          	nop
    80000304:	00000013          	nop
    80000308:	00209703          	lh	a4,2(ra)
    8000030c:	f0000393          	li	t2,-256
    80000310:	04771863          	bne	a4,t2,80000360 <fail>
    80000314:	00120213          	add	tp,tp,1 # 1 <_start-0x7fffffff>
    80000318:	00200293          	li	t0,2
    8000031c:	fc521ee3          	bne	tp,t0,800002f8 <test_17+0x8>

0000000080000320 <test_18>:
    80000320:	01200193          	li	gp,18
    80000324:	00002297          	auipc	t0,0x2
    80000328:	cdc28293          	add	t0,t0,-804 # 80002000 <begin_signature>
    8000032c:	00029103          	lh	sp,0(t0)
    80000330:	00200113          	li	sp,2
    80000334:	00200393          	li	t2,2
    80000338:	02711463          	bne	sp,t2,80000360 <fail>

000000008000033c <test_19>:
    8000033c:	01300193          	li	gp,19
    80000340:	00002297          	auipc	t0,0x2
    80000344:	cc028293          	add	t0,t0,-832 # 80002000 <begin_signature>
    80000348:	00029103          	lh	sp,0(t0)
    8000034c:	00000013          	nop
    80000350:	00200113          	li	sp,2
    80000354:	00200393          	li	t2,2
    80000358:	00711463          	bne	sp,t2,80000360 <fail>
    8000035c:	00301e63          	bne	zero,gp,80000378 <pass>

0000000080000360 <fail>:
    80000360:	00018063          	beqz	gp,80000360 <fail>
    80000364:	00119193          	sll	gp,gp,0x1
    80000368:	0011e193          	or	gp,gp,1
    8000036c:	05d00893          	li	a7,93
    80000370:	00018513          	mv	a0,gp
    80000374:	00100073          	ebreak

0000000080000378 <pass>:
    80000378:	00100193          	li	gp,1
    8000037c:	05d00893          	li	a7,93
    80000380:	00000513          	li	a0,0
    80000384:	00100073          	ebreak
    80000388:	0000                	.2byte	0x0
    8000038a:	0000                	.2byte	0x0
    8000038c:	0000                	.2byte	0x0
    8000038e:	0000                	.2byte	0x0
    80000390:	0000                	.2byte	0x0
    80000392:	0000                	.2byte	0x0
    80000394:	0000                	.2byte	0x0
    80000396:	0000                	.2byte	0x0
    80000398:	0000                	.2byte	0x0
    8000039a:	0000                	.2byte	0x0
    8000039c:	0000                	.2byte	0x0
    8000039e:	0000                	.2byte	0x0
    800003a0:	0000                	.2byte	0x0
    800003a2:	0000                	.2byte	0x0
    800003a4:	0000                	.2byte	0x0
    800003a6:	0000                	.2byte	0x0
    800003a8:	0000                	.2byte	0x0
    800003aa:	0000                	.2byte	0x0
    800003ac:	0000                	.2byte	0x0
    800003ae:	0000                	.2byte	0x0
    800003b0:	0000                	.2byte	0x0
    800003b2:	0000                	.2byte	0x0
    800003b4:	0000                	.2byte	0x0
    800003b6:	0000                	.2byte	0x0
    800003b8:	0000                	.2byte	0x0
    800003ba:	0000                	.2byte	0x0
    800003bc:	0000                	.2byte	0x0
    800003be:	0000                	.2byte	0x0
