
rv64ui-p-blt:     file format elf64-littleriscv


Disassembly of section .text.init:

0000000080000000 <_start>:
    80000000:	0480006f          	j	80000048 <reset_vector>

0000000080000004 <trap_vector>:
    80000004:	34202f73          	csrr	t5,mcause
    80000008:	00800f93          	li	t6,8
    8000000c:	03ff0863          	beq	t5,t6,8000003c <write_tohost>
    80000010:	00900f93          	li	t6,9
    80000014:	03ff0463          	beq	t5,t6,8000003c <write_tohost>
    80000018:	00b00f93          	li	t6,11
    8000001c:	03ff0063          	beq	t5,t6,8000003c <write_tohost>
    80000020:	00000f13          	li	t5,0
    80000024:	000f0463          	beqz	t5,8000002c <trap_vector+0x28>
    80000028:	000f0067          	jr	t5
    8000002c:	34202f73          	csrr	t5,mcause
    80000030:	000f5463          	bgez	t5,80000038 <handle_exception>
    80000034:	0040006f          	j	80000038 <handle_exception>

0000000080000038 <handle_exception>:
    80000038:	5391e193          	or	gp,gp,1337

000000008000003c <write_tohost>:
    8000003c:	00001f17          	auipc	t5,0x1
    80000040:	fc3f2223          	sw	gp,-60(t5) # 80001000 <tohost>
    80000044:	ff9ff06f          	j	8000003c <write_tohost>

0000000080000048 <reset_vector>:
    80000048:	00000093          	li	ra,0
    8000004c:	00000113          	li	sp,0
    80000050:	00000193          	li	gp,0
    80000054:	00000213          	li	tp,0
    80000058:	00000293          	li	t0,0
    8000005c:	00000313          	li	t1,0
    80000060:	00000393          	li	t2,0
    80000064:	00000413          	li	s0,0
    80000068:	00000493          	li	s1,0
    8000006c:	00000513          	li	a0,0
    80000070:	00000593          	li	a1,0
    80000074:	00000613          	li	a2,0
    80000078:	00000693          	li	a3,0
    8000007c:	00000713          	li	a4,0
    80000080:	00000793          	li	a5,0
    80000084:	00000813          	li	a6,0
    80000088:	00000893          	li	a7,0
    8000008c:	00000913          	li	s2,0
    80000090:	00000993          	li	s3,0
    80000094:	00000a13          	li	s4,0
    80000098:	00000a93          	li	s5,0
    8000009c:	00000b13          	li	s6,0
    800000a0:	00000b93          	li	s7,0
    800000a4:	00000c13          	li	s8,0
    800000a8:	00000c93          	li	s9,0
    800000ac:	00000d13          	li	s10,0
    800000b0:	00000d93          	li	s11,0
    800000b4:	00000e13          	li	t3,0
    800000b8:	00000e93          	li	t4,0
    800000bc:	00000f13          	li	t5,0
    800000c0:	00000f93          	li	t6,0

00000000800000c4 <test_2>:
    800000c4:	00200193          	li	gp,2
    800000c8:	00000093          	li	ra,0
    800000cc:	00100113          	li	sp,1
    800000d0:	0020c663          	blt	ra,sp,800000dc <test_2+0x18>
    800000d4:	2a301863          	bne	zero,gp,80000384 <fail>
    800000d8:	00301663          	bne	zero,gp,800000e4 <test_3>
    800000dc:	fe20cee3          	blt	ra,sp,800000d8 <test_2+0x14>
    800000e0:	2a301263          	bne	zero,gp,80000384 <fail>

00000000800000e4 <test_3>:
    800000e4:	00300193          	li	gp,3
    800000e8:	fff00093          	li	ra,-1
    800000ec:	00100113          	li	sp,1
    800000f0:	0020c663          	blt	ra,sp,800000fc <test_3+0x18>
    800000f4:	28301863          	bne	zero,gp,80000384 <fail>
    800000f8:	00301663          	bne	zero,gp,80000104 <test_4>
    800000fc:	fe20cee3          	blt	ra,sp,800000f8 <test_3+0x14>
    80000100:	28301263          	bne	zero,gp,80000384 <fail>

0000000080000104 <test_4>:
    80000104:	00400193          	li	gp,4
    80000108:	ffe00093          	li	ra,-2
    8000010c:	fff00113          	li	sp,-1
    80000110:	0020c663          	blt	ra,sp,8000011c <test_4+0x18>
    80000114:	26301863          	bne	zero,gp,80000384 <fail>
    80000118:	00301663          	bne	zero,gp,80000124 <test_5>
    8000011c:	fe20cee3          	blt	ra,sp,80000118 <test_4+0x14>
    80000120:	26301263          	bne	zero,gp,80000384 <fail>

0000000080000124 <test_5>:
    80000124:	00500193          	li	gp,5
    80000128:	00100093          	li	ra,1
    8000012c:	00000113          	li	sp,0
    80000130:	0020c463          	blt	ra,sp,80000138 <test_5+0x14>
    80000134:	00301463          	bne	zero,gp,8000013c <test_5+0x18>
    80000138:	24301663          	bne	zero,gp,80000384 <fail>
    8000013c:	fe20cee3          	blt	ra,sp,80000138 <test_5+0x14>

0000000080000140 <test_6>:
    80000140:	00600193          	li	gp,6
    80000144:	00100093          	li	ra,1
    80000148:	fff00113          	li	sp,-1
    8000014c:	0020c463          	blt	ra,sp,80000154 <test_6+0x14>
    80000150:	00301463          	bne	zero,gp,80000158 <test_6+0x18>
    80000154:	22301863          	bne	zero,gp,80000384 <fail>
    80000158:	fe20cee3          	blt	ra,sp,80000154 <test_6+0x14>

000000008000015c <test_7>:
    8000015c:	00700193          	li	gp,7
    80000160:	fff00093          	li	ra,-1
    80000164:	ffe00113          	li	sp,-2
    80000168:	0020c463          	blt	ra,sp,80000170 <test_7+0x14>
    8000016c:	00301463          	bne	zero,gp,80000174 <test_7+0x18>
    80000170:	20301a63          	bne	zero,gp,80000384 <fail>
    80000174:	fe20cee3          	blt	ra,sp,80000170 <test_7+0x14>

0000000080000178 <test_8>:
    80000178:	00800193          	li	gp,8
    8000017c:	00100093          	li	ra,1
    80000180:	ffe00113          	li	sp,-2
    80000184:	0020c463          	blt	ra,sp,8000018c <test_8+0x14>
    80000188:	00301463          	bne	zero,gp,80000190 <test_8+0x18>
    8000018c:	1e301c63          	bne	zero,gp,80000384 <fail>
    80000190:	fe20cee3          	blt	ra,sp,8000018c <test_8+0x14>

0000000080000194 <test_9>:
    80000194:	00900193          	li	gp,9
    80000198:	00000213          	li	tp,0
    8000019c:	00000093          	li	ra,0
    800001a0:	fff00113          	li	sp,-1
    800001a4:	1e20c063          	blt	ra,sp,80000384 <fail>
    800001a8:	00120213          	add	tp,tp,1 # 1 <_start-0x7fffffff>
    800001ac:	00200293          	li	t0,2
    800001b0:	fe5216e3          	bne	tp,t0,8000019c <test_9+0x8>

00000000800001b4 <test_10>:
    800001b4:	00a00193          	li	gp,10
    800001b8:	00000213          	li	tp,0
    800001bc:	00000093          	li	ra,0
    800001c0:	fff00113          	li	sp,-1
    800001c4:	00000013          	nop
    800001c8:	1a20ce63          	blt	ra,sp,80000384 <fail>
    800001cc:	00120213          	add	tp,tp,1 # 1 <_start-0x7fffffff>
    800001d0:	00200293          	li	t0,2
    800001d4:	fe5214e3          	bne	tp,t0,800001bc <test_10+0x8>

00000000800001d8 <test_11>:
    800001d8:	00b00193          	li	gp,11
    800001dc:	00000213          	li	tp,0
    800001e0:	00000093          	li	ra,0
    800001e4:	fff00113          	li	sp,-1
    800001e8:	00000013          	nop
    800001ec:	00000013          	nop
    800001f0:	1820ca63          	blt	ra,sp,80000384 <fail>
    800001f4:	00120213          	add	tp,tp,1 # 1 <_start-0x7fffffff>
    800001f8:	00200293          	li	t0,2
    800001fc:	fe5212e3          	bne	tp,t0,800001e0 <test_11+0x8>

0000000080000200 <test_12>:
    80000200:	00c00193          	li	gp,12
    80000204:	00000213          	li	tp,0
    80000208:	00000093          	li	ra,0
    8000020c:	00000013          	nop
    80000210:	fff00113          	li	sp,-1
    80000214:	1620c863          	blt	ra,sp,80000384 <fail>
    80000218:	00120213          	add	tp,tp,1 # 1 <_start-0x7fffffff>
    8000021c:	00200293          	li	t0,2
    80000220:	fe5214e3          	bne	tp,t0,80000208 <test_12+0x8>

0000000080000224 <test_13>:
    80000224:	00d00193          	li	gp,13
    80000228:	00000213          	li	tp,0
    8000022c:	00000093          	li	ra,0
    80000230:	00000013          	nop
    80000234:	fff00113          	li	sp,-1
    80000238:	00000013          	nop
    8000023c:	1420c463          	blt	ra,sp,80000384 <fail>
    80000240:	00120213          	add	tp,tp,1 # 1 <_start-0x7fffffff>
    80000244:	00200293          	li	t0,2
    80000248:	fe5212e3          	bne	tp,t0,8000022c <test_13+0x8>

000000008000024c <test_14>:
    8000024c:	00e00193          	li	gp,14
    80000250:	00000213          	li	tp,0
    80000254:	00000093          	li	ra,0
    80000258:	00000013          	nop
    8000025c:	00000013          	nop
    80000260:	fff00113          	li	sp,-1
    80000264:	1220c063          	blt	ra,sp,80000384 <fail>
    80000268:	00120213          	add	tp,tp,1 # 1 <_start-0x7fffffff>
    8000026c:	00200293          	li	t0,2
    80000270:	fe5212e3          	bne	tp,t0,80000254 <test_14+0x8>

0000000080000274 <test_15>:
    80000274:	00f00193          	li	gp,15
    80000278:	00000213          	li	tp,0
    8000027c:	00000093          	li	ra,0
    80000280:	fff00113          	li	sp,-1
    80000284:	1020c063          	blt	ra,sp,80000384 <fail>
    80000288:	00120213          	add	tp,tp,1 # 1 <_start-0x7fffffff>
    8000028c:	00200293          	li	t0,2
    80000290:	fe5216e3          	bne	tp,t0,8000027c <test_15+0x8>

0000000080000294 <test_16>:
    80000294:	01000193          	li	gp,16
    80000298:	00000213          	li	tp,0
    8000029c:	00000093          	li	ra,0
    800002a0:	fff00113          	li	sp,-1
    800002a4:	00000013          	nop
    800002a8:	0c20ce63          	blt	ra,sp,80000384 <fail>
    800002ac:	00120213          	add	tp,tp,1 # 1 <_start-0x7fffffff>
    800002b0:	00200293          	li	t0,2
    800002b4:	fe5214e3          	bne	tp,t0,8000029c <test_16+0x8>

00000000800002b8 <test_17>:
    800002b8:	01100193          	li	gp,17
    800002bc:	00000213          	li	tp,0
    800002c0:	00000093          	li	ra,0
    800002c4:	fff00113          	li	sp,-1
    800002c8:	00000013          	nop
    800002cc:	00000013          	nop
    800002d0:	0a20ca63          	blt	ra,sp,80000384 <fail>
    800002d4:	00120213          	add	tp,tp,1 # 1 <_start-0x7fffffff>
    800002d8:	00200293          	li	t0,2
    800002dc:	fe5212e3          	bne	tp,t0,800002c0 <test_17+0x8>

00000000800002e0 <test_18>:
    800002e0:	01200193          	li	gp,18
    800002e4:	00000213          	li	tp,0
    800002e8:	00000093          	li	ra,0
    800002ec:	00000013          	nop
    800002f0:	fff00113          	li	sp,-1
    800002f4:	0820c863          	blt	ra,sp,80000384 <fail>
    800002f8:	00120213          	add	tp,tp,1 # 1 <_start-0x7fffffff>
    800002fc:	00200293          	li	t0,2
    80000300:	fe5214e3          	bne	tp,t0,800002e8 <test_18+0x8>

0000000080000304 <test_19>:
    80000304:	01300193          	li	gp,19
    80000308:	00000213          	li	tp,0
    8000030c:	00000093          	li	ra,0
    80000310:	00000013          	nop
    80000314:	fff00113          	li	sp,-1
    80000318:	00000013          	nop
    8000031c:	0620c463          	blt	ra,sp,80000384 <fail>
    80000320:	00120213          	add	tp,tp,1 # 1 <_start-0x7fffffff>
    80000324:	00200293          	li	t0,2
    80000328:	fe5212e3          	bne	tp,t0,8000030c <test_19+0x8>

000000008000032c <test_20>:
    8000032c:	01400193          	li	gp,20
    80000330:	00000213          	li	tp,0
    80000334:	00000093          	li	ra,0
    80000338:	00000013          	nop
    8000033c:	00000013          	nop
    80000340:	fff00113          	li	sp,-1
    80000344:	0420c063          	blt	ra,sp,80000384 <fail>
    80000348:	00120213          	add	tp,tp,1 # 1 <_start-0x7fffffff>
    8000034c:	00200293          	li	t0,2
    80000350:	fe5212e3          	bne	tp,t0,80000334 <test_20+0x8>

0000000080000354 <test_21>:
    80000354:	01500193          	li	gp,21
    80000358:	00100093          	li	ra,1
    8000035c:	00104a63          	bgtz	ra,80000370 <test_21+0x1c>
    80000360:	00108093          	add	ra,ra,1
    80000364:	00108093          	add	ra,ra,1
    80000368:	00108093          	add	ra,ra,1
    8000036c:	00108093          	add	ra,ra,1
    80000370:	00108093          	add	ra,ra,1
    80000374:	00108093          	add	ra,ra,1
    80000378:	00300393          	li	t2,3
    8000037c:	00709463          	bne	ra,t2,80000384 <fail>
    80000380:	00301e63          	bne	zero,gp,8000039c <pass>

0000000080000384 <fail>:
    80000384:	00018063          	beqz	gp,80000384 <fail>
    80000388:	00119193          	sll	gp,gp,0x1
    8000038c:	0011e193          	or	gp,gp,1
    80000390:	05d00893          	li	a7,93
    80000394:	00018513          	mv	a0,gp
    80000398:	00100073          	ebreak

000000008000039c <pass>:
    8000039c:	00100193          	li	gp,1
    800003a0:	05d00893          	li	a7,93
    800003a4:	00000513          	li	a0,0
    800003a8:	00100073          	ebreak
    800003ac:	0000                	.2byte	0x0
    800003ae:	0000                	.2byte	0x0
    800003b0:	0000                	.2byte	0x0
    800003b2:	0000                	.2byte	0x0
    800003b4:	0000                	.2byte	0x0
    800003b6:	0000                	.2byte	0x0
    800003b8:	0000                	.2byte	0x0
    800003ba:	0000                	.2byte	0x0
    800003bc:	0000                	.2byte	0x0
    800003be:	0000                	.2byte	0x0
