
rv64ui-p-sw:     file format elf64-littleriscv


Disassembly of section .text.init:

0000000080000000 <_start>:
    80000000:	0480006f          	j	80000048 <reset_vector>

0000000080000004 <trap_vector>:
    80000004:	34202f73          	csrr	t5,mcause
    80000008:	00800f93          	li	t6,8
    8000000c:	03ff0863          	beq	t5,t6,8000003c <write_tohost>
    80000010:	00900f93          	li	t6,9
    80000014:	03ff0463          	beq	t5,t6,8000003c <write_tohost>
    80000018:	00b00f93          	li	t6,11
    8000001c:	03ff0063          	beq	t5,t6,8000003c <write_tohost>
    80000020:	00000f13          	li	t5,0
    80000024:	000f0463          	beqz	t5,8000002c <trap_vector+0x28>
    80000028:	000f0067          	jr	t5
    8000002c:	34202f73          	csrr	t5,mcause
    80000030:	000f5463          	bgez	t5,80000038 <handle_exception>
    80000034:	0040006f          	j	80000038 <handle_exception>

0000000080000038 <handle_exception>:
    80000038:	5391e193          	or	gp,gp,1337

000000008000003c <write_tohost>:
    8000003c:	00001f17          	auipc	t5,0x1
    80000040:	fc3f2223          	sw	gp,-60(t5) # 80001000 <tohost>
    80000044:	ff9ff06f          	j	8000003c <write_tohost>

0000000080000048 <reset_vector>:
    80000048:	00000093          	li	ra,0
    8000004c:	00000113          	li	sp,0
    80000050:	00000193          	li	gp,0
    80000054:	00000213          	li	tp,0
    80000058:	00000293          	li	t0,0
    8000005c:	00000313          	li	t1,0
    80000060:	00000393          	li	t2,0
    80000064:	00000413          	li	s0,0
    80000068:	00000493          	li	s1,0
    8000006c:	00000513          	li	a0,0
    80000070:	00000593          	li	a1,0
    80000074:	00000613          	li	a2,0
    80000078:	00000693          	li	a3,0
    8000007c:	00000713          	li	a4,0
    80000080:	00000793          	li	a5,0
    80000084:	00000813          	li	a6,0
    80000088:	00000893          	li	a7,0
    8000008c:	00000913          	li	s2,0
    80000090:	00000993          	li	s3,0
    80000094:	00000a13          	li	s4,0
    80000098:	00000a93          	li	s5,0
    8000009c:	00000b13          	li	s6,0
    800000a0:	00000b93          	li	s7,0
    800000a4:	00000c13          	li	s8,0
    800000a8:	00000c93          	li	s9,0
    800000ac:	00000d13          	li	s10,0
    800000b0:	00000d93          	li	s11,0
    800000b4:	00000e13          	li	t3,0
    800000b8:	00000e93          	li	t4,0
    800000bc:	00000f13          	li	t5,0
    800000c0:	00000f93          	li	t6,0

00000000800000c4 <test_2>:
    800000c4:	00200193          	li	gp,2
    800000c8:	00002097          	auipc	ra,0x2
    800000cc:	f3808093          	add	ra,ra,-200 # 80002000 <begin_signature>
    800000d0:	00aa0137          	lui	sp,0xaa0
    800000d4:	0aa1011b          	addw	sp,sp,170 # aa00aa <_start-0x7f55ff56>
    800000d8:	00000797          	auipc	a5,0x0
    800000dc:	01478793          	add	a5,a5,20 # 800000ec <test_2+0x28>
    800000e0:	0020a023          	sw	sp,0(ra)
    800000e4:	0000a703          	lw	a4,0(ra)
    800000e8:	0080006f          	j	800000f0 <test_2+0x2c>
    800000ec:	00010713          	mv	a4,sp
    800000f0:	00aa03b7          	lui	t2,0xaa0
    800000f4:	0aa3839b          	addw	t2,t2,170 # aa00aa <_start-0x7f55ff56>
    800000f8:	4c771863          	bne	a4,t2,800005c8 <fail>

00000000800000fc <test_3>:
    800000fc:	00300193          	li	gp,3
    80000100:	00002097          	auipc	ra,0x2
    80000104:	f0008093          	add	ra,ra,-256 # 80002000 <begin_signature>
    80000108:	aa00b137          	lui	sp,0xaa00b
    8000010c:	a001011b          	addw	sp,sp,-1536 # ffffffffaa00aa00 <_end+0xffffffff2a0089d0>
    80000110:	00000797          	auipc	a5,0x0
    80000114:	01478793          	add	a5,a5,20 # 80000124 <test_3+0x28>
    80000118:	0020a223          	sw	sp,4(ra)
    8000011c:	0040a703          	lw	a4,4(ra)
    80000120:	0080006f          	j	80000128 <test_3+0x2c>
    80000124:	00010713          	mv	a4,sp
    80000128:	aa00b3b7          	lui	t2,0xaa00b
    8000012c:	a003839b          	addw	t2,t2,-1536 # ffffffffaa00aa00 <_end+0xffffffff2a0089d0>
    80000130:	48771c63          	bne	a4,t2,800005c8 <fail>

0000000080000134 <test_4>:
    80000134:	00400193          	li	gp,4
    80000138:	00002097          	auipc	ra,0x2
    8000013c:	ec808093          	add	ra,ra,-312 # 80002000 <begin_signature>
    80000140:	0aa01137          	lui	sp,0xaa01
    80000144:	aa01011b          	addw	sp,sp,-1376 # aa00aa0 <_start-0x755ff560>
    80000148:	00000797          	auipc	a5,0x0
    8000014c:	01478793          	add	a5,a5,20 # 8000015c <test_4+0x28>
    80000150:	0020a423          	sw	sp,8(ra)
    80000154:	0080a703          	lw	a4,8(ra)
    80000158:	0080006f          	j	80000160 <test_4+0x2c>
    8000015c:	00010713          	mv	a4,sp
    80000160:	0aa013b7          	lui	t2,0xaa01
    80000164:	aa03839b          	addw	t2,t2,-1376 # aa00aa0 <_start-0x755ff560>
    80000168:	46771063          	bne	a4,t2,800005c8 <fail>

000000008000016c <test_5>:
    8000016c:	00500193          	li	gp,5
    80000170:	00002097          	auipc	ra,0x2
    80000174:	e9008093          	add	ra,ra,-368 # 80002000 <begin_signature>
    80000178:	a00aa137          	lui	sp,0xa00aa
    8000017c:	00a1011b          	addw	sp,sp,10 # ffffffffa00aa00a <_end+0xffffffff200a7fda>
    80000180:	00000797          	auipc	a5,0x0
    80000184:	01478793          	add	a5,a5,20 # 80000194 <test_5+0x28>
    80000188:	0020a623          	sw	sp,12(ra)
    8000018c:	00c0a703          	lw	a4,12(ra)
    80000190:	0080006f          	j	80000198 <test_5+0x2c>
    80000194:	00010713          	mv	a4,sp
    80000198:	a00aa3b7          	lui	t2,0xa00aa
    8000019c:	00a3839b          	addw	t2,t2,10 # ffffffffa00aa00a <_end+0xffffffff200a7fda>
    800001a0:	42771463          	bne	a4,t2,800005c8 <fail>

00000000800001a4 <test_6>:
    800001a4:	00600193          	li	gp,6
    800001a8:	00002097          	auipc	ra,0x2
    800001ac:	e7408093          	add	ra,ra,-396 # 8000201c <tdat8>
    800001b0:	00aa0137          	lui	sp,0xaa0
    800001b4:	0aa1011b          	addw	sp,sp,170 # aa00aa <_start-0x7f55ff56>
    800001b8:	00000797          	auipc	a5,0x0
    800001bc:	01478793          	add	a5,a5,20 # 800001cc <test_6+0x28>
    800001c0:	fe20aa23          	sw	sp,-12(ra)
    800001c4:	ff40a703          	lw	a4,-12(ra)
    800001c8:	0080006f          	j	800001d0 <test_6+0x2c>
    800001cc:	00010713          	mv	a4,sp
    800001d0:	00aa03b7          	lui	t2,0xaa0
    800001d4:	0aa3839b          	addw	t2,t2,170 # aa00aa <_start-0x7f55ff56>
    800001d8:	3e771863          	bne	a4,t2,800005c8 <fail>

00000000800001dc <test_7>:
    800001dc:	00700193          	li	gp,7
    800001e0:	00002097          	auipc	ra,0x2
    800001e4:	e3c08093          	add	ra,ra,-452 # 8000201c <tdat8>
    800001e8:	aa00b137          	lui	sp,0xaa00b
    800001ec:	a001011b          	addw	sp,sp,-1536 # ffffffffaa00aa00 <_end+0xffffffff2a0089d0>
    800001f0:	00000797          	auipc	a5,0x0
    800001f4:	01478793          	add	a5,a5,20 # 80000204 <test_7+0x28>
    800001f8:	fe20ac23          	sw	sp,-8(ra)
    800001fc:	ff80a703          	lw	a4,-8(ra)
    80000200:	0080006f          	j	80000208 <test_7+0x2c>
    80000204:	00010713          	mv	a4,sp
    80000208:	aa00b3b7          	lui	t2,0xaa00b
    8000020c:	a003839b          	addw	t2,t2,-1536 # ffffffffaa00aa00 <_end+0xffffffff2a0089d0>
    80000210:	3a771c63          	bne	a4,t2,800005c8 <fail>

0000000080000214 <test_8>:
    80000214:	00800193          	li	gp,8
    80000218:	00002097          	auipc	ra,0x2
    8000021c:	e0408093          	add	ra,ra,-508 # 8000201c <tdat8>
    80000220:	0aa01137          	lui	sp,0xaa01
    80000224:	aa01011b          	addw	sp,sp,-1376 # aa00aa0 <_start-0x755ff560>
    80000228:	00000797          	auipc	a5,0x0
    8000022c:	01478793          	add	a5,a5,20 # 8000023c <test_8+0x28>
    80000230:	fe20ae23          	sw	sp,-4(ra)
    80000234:	ffc0a703          	lw	a4,-4(ra)
    80000238:	0080006f          	j	80000240 <test_8+0x2c>
    8000023c:	00010713          	mv	a4,sp
    80000240:	0aa013b7          	lui	t2,0xaa01
    80000244:	aa03839b          	addw	t2,t2,-1376 # aa00aa0 <_start-0x755ff560>
    80000248:	38771063          	bne	a4,t2,800005c8 <fail>

000000008000024c <test_9>:
    8000024c:	00900193          	li	gp,9
    80000250:	00002097          	auipc	ra,0x2
    80000254:	dcc08093          	add	ra,ra,-564 # 8000201c <tdat8>
    80000258:	a00aa137          	lui	sp,0xa00aa
    8000025c:	00a1011b          	addw	sp,sp,10 # ffffffffa00aa00a <_end+0xffffffff200a7fda>
    80000260:	00000797          	auipc	a5,0x0
    80000264:	01478793          	add	a5,a5,20 # 80000274 <test_9+0x28>
    80000268:	0020a023          	sw	sp,0(ra)
    8000026c:	0000a703          	lw	a4,0(ra)
    80000270:	0080006f          	j	80000278 <test_9+0x2c>
    80000274:	00010713          	mv	a4,sp
    80000278:	a00aa3b7          	lui	t2,0xa00aa
    8000027c:	00a3839b          	addw	t2,t2,10 # ffffffffa00aa00a <_end+0xffffffff200a7fda>
    80000280:	34771463          	bne	a4,t2,800005c8 <fail>

0000000080000284 <test_10>:
    80000284:	00a00193          	li	gp,10
    80000288:	00002097          	auipc	ra,0x2
    8000028c:	d9808093          	add	ra,ra,-616 # 80002020 <tdat9>
    80000290:	12345137          	lui	sp,0x12345
    80000294:	6781011b          	addw	sp,sp,1656 # 12345678 <_start-0x6dcba988>
    80000298:	fe008213          	add	tp,ra,-32
    8000029c:	02222023          	sw	sp,32(tp) # 20 <_start-0x7fffffe0>
    800002a0:	0000a283          	lw	t0,0(ra)
    800002a4:	123453b7          	lui	t2,0x12345
    800002a8:	6783839b          	addw	t2,t2,1656 # 12345678 <_start-0x6dcba988>
    800002ac:	30729e63          	bne	t0,t2,800005c8 <fail>

00000000800002b0 <test_11>:
    800002b0:	00b00193          	li	gp,11
    800002b4:	00002097          	auipc	ra,0x2
    800002b8:	d6c08093          	add	ra,ra,-660 # 80002020 <tdat9>
    800002bc:	58213137          	lui	sp,0x58213
    800002c0:	0981011b          	addw	sp,sp,152 # 58213098 <_start-0x27decf68>
    800002c4:	ffd08093          	add	ra,ra,-3
    800002c8:	0020a3a3          	sw	sp,7(ra)
    800002cc:	00002217          	auipc	tp,0x2
    800002d0:	d5820213          	add	tp,tp,-680 # 80002024 <tdat10>
    800002d4:	00022283          	lw	t0,0(tp) # 0 <_start-0x80000000>
    800002d8:	582133b7          	lui	t2,0x58213
    800002dc:	0983839b          	addw	t2,t2,152 # 58213098 <_start-0x27decf68>
    800002e0:	2e729463          	bne	t0,t2,800005c8 <fail>

00000000800002e4 <test_12>:
    800002e4:	00c00193          	li	gp,12
    800002e8:	00000213          	li	tp,0
    800002ec:	aabbd0b7          	lui	ra,0xaabbd
    800002f0:	cdd0809b          	addw	ra,ra,-803 # ffffffffaabbccdd <_end+0xffffffff2abbacad>
    800002f4:	00002117          	auipc	sp,0x2
    800002f8:	d0c10113          	add	sp,sp,-756 # 80002000 <begin_signature>
    800002fc:	00112023          	sw	ra,0(sp)
    80000300:	00012703          	lw	a4,0(sp)
    80000304:	aabbd3b7          	lui	t2,0xaabbd
    80000308:	cdd3839b          	addw	t2,t2,-803 # ffffffffaabbccdd <_end+0xffffffff2abbacad>
    8000030c:	2a771e63          	bne	a4,t2,800005c8 <fail>
    80000310:	00120213          	add	tp,tp,1 # 1 <_start-0x7fffffff>
    80000314:	00200293          	li	t0,2
    80000318:	fc521ae3          	bne	tp,t0,800002ec <test_12+0x8>

000000008000031c <test_13>:
    8000031c:	00d00193          	li	gp,13
    80000320:	00000213          	li	tp,0
    80000324:	daabc0b7          	lui	ra,0xdaabc
    80000328:	ccd0809b          	addw	ra,ra,-819 # ffffffffdaabbccd <_end+0xffffffff5aab9c9d>
    8000032c:	00002117          	auipc	sp,0x2
    80000330:	cd410113          	add	sp,sp,-812 # 80002000 <begin_signature>
    80000334:	00000013          	nop
    80000338:	00112223          	sw	ra,4(sp)
    8000033c:	00412703          	lw	a4,4(sp)
    80000340:	daabc3b7          	lui	t2,0xdaabc
    80000344:	ccd3839b          	addw	t2,t2,-819 # ffffffffdaabbccd <_end+0xffffffff5aab9c9d>
    80000348:	28771063          	bne	a4,t2,800005c8 <fail>
    8000034c:	00120213          	add	tp,tp,1 # 1 <_start-0x7fffffff>
    80000350:	00200293          	li	t0,2
    80000354:	fc5218e3          	bne	tp,t0,80000324 <test_13+0x8>

0000000080000358 <test_14>:
    80000358:	00e00193          	li	gp,14
    8000035c:	00000213          	li	tp,0
    80000360:	ddaac0b7          	lui	ra,0xddaac
    80000364:	bcc0809b          	addw	ra,ra,-1076 # ffffffffddaabbcc <_end+0xffffffff5daa9b9c>
    80000368:	00002117          	auipc	sp,0x2
    8000036c:	c9810113          	add	sp,sp,-872 # 80002000 <begin_signature>
    80000370:	00000013          	nop
    80000374:	00000013          	nop
    80000378:	00112423          	sw	ra,8(sp)
    8000037c:	00812703          	lw	a4,8(sp)
    80000380:	ddaac3b7          	lui	t2,0xddaac
    80000384:	bcc3839b          	addw	t2,t2,-1076 # ffffffffddaabbcc <_end+0xffffffff5daa9b9c>
    80000388:	24771063          	bne	a4,t2,800005c8 <fail>
    8000038c:	00120213          	add	tp,tp,1 # 1 <_start-0x7fffffff>
    80000390:	00200293          	li	t0,2
    80000394:	fc5216e3          	bne	tp,t0,80000360 <test_14+0x8>

0000000080000398 <test_15>:
    80000398:	00f00193          	li	gp,15
    8000039c:	00000213          	li	tp,0
    800003a0:	cddab0b7          	lui	ra,0xcddab
    800003a4:	bbc0809b          	addw	ra,ra,-1092 # ffffffffcddaabbc <_end+0xffffffff4dda8b8c>
    800003a8:	00000013          	nop
    800003ac:	00002117          	auipc	sp,0x2
    800003b0:	c5410113          	add	sp,sp,-940 # 80002000 <begin_signature>
    800003b4:	00112623          	sw	ra,12(sp)
    800003b8:	00c12703          	lw	a4,12(sp)
    800003bc:	cddab3b7          	lui	t2,0xcddab
    800003c0:	bbc3839b          	addw	t2,t2,-1092 # ffffffffcddaabbc <_end+0xffffffff4dda8b8c>
    800003c4:	20771263          	bne	a4,t2,800005c8 <fail>
    800003c8:	00120213          	add	tp,tp,1 # 1 <_start-0x7fffffff>
    800003cc:	00200293          	li	t0,2
    800003d0:	fc5218e3          	bne	tp,t0,800003a0 <test_15+0x8>

00000000800003d4 <test_16>:
    800003d4:	01000193          	li	gp,16
    800003d8:	00000213          	li	tp,0
    800003dc:	ccddb0b7          	lui	ra,0xccddb
    800003e0:	abb0809b          	addw	ra,ra,-1349 # ffffffffccddaabb <_end+0xffffffff4cdd8a8b>
    800003e4:	00000013          	nop
    800003e8:	00002117          	auipc	sp,0x2
    800003ec:	c1810113          	add	sp,sp,-1000 # 80002000 <begin_signature>
    800003f0:	00000013          	nop
    800003f4:	00112823          	sw	ra,16(sp)
    800003f8:	01012703          	lw	a4,16(sp)
    800003fc:	ccddb3b7          	lui	t2,0xccddb
    80000400:	abb3839b          	addw	t2,t2,-1349 # ffffffffccddaabb <_end+0xffffffff4cdd8a8b>
    80000404:	1c771263          	bne	a4,t2,800005c8 <fail>
    80000408:	00120213          	add	tp,tp,1 # 1 <_start-0x7fffffff>
    8000040c:	00200293          	li	t0,2
    80000410:	fc5216e3          	bne	tp,t0,800003dc <test_16+0x8>

0000000080000414 <test_17>:
    80000414:	01100193          	li	gp,17
    80000418:	00000213          	li	tp,0
    8000041c:	bccde0b7          	lui	ra,0xbccde
    80000420:	aab0809b          	addw	ra,ra,-1365 # ffffffffbccddaab <_end+0xffffffff3ccdba7b>
    80000424:	00000013          	nop
    80000428:	00000013          	nop
    8000042c:	00002117          	auipc	sp,0x2
    80000430:	bd410113          	add	sp,sp,-1068 # 80002000 <begin_signature>
    80000434:	00112a23          	sw	ra,20(sp)
    80000438:	01412703          	lw	a4,20(sp)
    8000043c:	bccde3b7          	lui	t2,0xbccde
    80000440:	aab3839b          	addw	t2,t2,-1365 # ffffffffbccddaab <_end+0xffffffff3ccdba7b>
    80000444:	18771263          	bne	a4,t2,800005c8 <fail>
    80000448:	00120213          	add	tp,tp,1 # 1 <_start-0x7fffffff>
    8000044c:	00200293          	li	t0,2
    80000450:	fc5216e3          	bne	tp,t0,8000041c <test_17+0x8>

0000000080000454 <test_18>:
    80000454:	01200193          	li	gp,18
    80000458:	00000213          	li	tp,0
    8000045c:	00002117          	auipc	sp,0x2
    80000460:	ba410113          	add	sp,sp,-1116 # 80002000 <begin_signature>
    80000464:	001120b7          	lui	ra,0x112
    80000468:	2330809b          	addw	ra,ra,563 # 112233 <_start-0x7feeddcd>
    8000046c:	00112023          	sw	ra,0(sp)
    80000470:	00012703          	lw	a4,0(sp)
    80000474:	001123b7          	lui	t2,0x112
    80000478:	2333839b          	addw	t2,t2,563 # 112233 <_start-0x7feeddcd>
    8000047c:	14771663          	bne	a4,t2,800005c8 <fail>
    80000480:	00120213          	add	tp,tp,1 # 1 <_start-0x7fffffff>
    80000484:	00200293          	li	t0,2
    80000488:	fc521ae3          	bne	tp,t0,8000045c <test_18+0x8>

000000008000048c <test_19>:
    8000048c:	01300193          	li	gp,19
    80000490:	00000213          	li	tp,0
    80000494:	00002117          	auipc	sp,0x2
    80000498:	b6c10113          	add	sp,sp,-1172 # 80002000 <begin_signature>
    8000049c:	300110b7          	lui	ra,0x30011
    800004a0:	2230809b          	addw	ra,ra,547 # 30011223 <_start-0x4ffeeddd>
    800004a4:	00000013          	nop
    800004a8:	00112223          	sw	ra,4(sp)
    800004ac:	00412703          	lw	a4,4(sp)
    800004b0:	300113b7          	lui	t2,0x30011
    800004b4:	2233839b          	addw	t2,t2,547 # 30011223 <_start-0x4ffeeddd>
    800004b8:	10771863          	bne	a4,t2,800005c8 <fail>
    800004bc:	00120213          	add	tp,tp,1 # 1 <_start-0x7fffffff>
    800004c0:	00200293          	li	t0,2
    800004c4:	fc5218e3          	bne	tp,t0,80000494 <test_19+0x8>

00000000800004c8 <test_20>:
    800004c8:	01400193          	li	gp,20
    800004cc:	00000213          	li	tp,0
    800004d0:	00002117          	auipc	sp,0x2
    800004d4:	b3010113          	add	sp,sp,-1232 # 80002000 <begin_signature>
    800004d8:	330010b7          	lui	ra,0x33001
    800004dc:	1220809b          	addw	ra,ra,290 # 33001122 <_start-0x4cffeede>
    800004e0:	00000013          	nop
    800004e4:	00000013          	nop
    800004e8:	00112423          	sw	ra,8(sp)
    800004ec:	00812703          	lw	a4,8(sp)
    800004f0:	330013b7          	lui	t2,0x33001
    800004f4:	1223839b          	addw	t2,t2,290 # 33001122 <_start-0x4cffeede>
    800004f8:	0c771863          	bne	a4,t2,800005c8 <fail>
    800004fc:	00120213          	add	tp,tp,1 # 1 <_start-0x7fffffff>
    80000500:	00200293          	li	t0,2
    80000504:	fc5216e3          	bne	tp,t0,800004d0 <test_20+0x8>

0000000080000508 <test_21>:
    80000508:	01500193          	li	gp,21
    8000050c:	00000213          	li	tp,0
    80000510:	00002117          	auipc	sp,0x2
    80000514:	af010113          	add	sp,sp,-1296 # 80002000 <begin_signature>
    80000518:	00000013          	nop
    8000051c:	233000b7          	lui	ra,0x23300
    80000520:	1120809b          	addw	ra,ra,274 # 23300112 <_start-0x5ccffeee>
    80000524:	00112623          	sw	ra,12(sp)
    80000528:	00c12703          	lw	a4,12(sp)
    8000052c:	233003b7          	lui	t2,0x23300
    80000530:	1123839b          	addw	t2,t2,274 # 23300112 <_start-0x5ccffeee>
    80000534:	08771a63          	bne	a4,t2,800005c8 <fail>
    80000538:	00120213          	add	tp,tp,1 # 1 <_start-0x7fffffff>
    8000053c:	00200293          	li	t0,2
    80000540:	fc5218e3          	bne	tp,t0,80000510 <test_21+0x8>

0000000080000544 <test_22>:
    80000544:	01600193          	li	gp,22
    80000548:	00000213          	li	tp,0
    8000054c:	00002117          	auipc	sp,0x2
    80000550:	ab410113          	add	sp,sp,-1356 # 80002000 <begin_signature>
    80000554:	00000013          	nop
    80000558:	223300b7          	lui	ra,0x22330
    8000055c:	0110809b          	addw	ra,ra,17 # 22330011 <_start-0x5dccffef>
    80000560:	00000013          	nop
    80000564:	00112823          	sw	ra,16(sp)
    80000568:	01012703          	lw	a4,16(sp)
    8000056c:	223303b7          	lui	t2,0x22330
    80000570:	0113839b          	addw	t2,t2,17 # 22330011 <_start-0x5dccffef>
    80000574:	04771a63          	bne	a4,t2,800005c8 <fail>
    80000578:	00120213          	add	tp,tp,1 # 1 <_start-0x7fffffff>
    8000057c:	00200293          	li	t0,2
    80000580:	fc5216e3          	bne	tp,t0,8000054c <test_22+0x8>

0000000080000584 <test_23>:
    80000584:	01700193          	li	gp,23
    80000588:	00000213          	li	tp,0
    8000058c:	00002117          	auipc	sp,0x2
    80000590:	a7410113          	add	sp,sp,-1420 # 80002000 <begin_signature>
    80000594:	00000013          	nop
    80000598:	00000013          	nop
    8000059c:	122330b7          	lui	ra,0x12233
    800005a0:	0010809b          	addw	ra,ra,1 # 12233001 <_start-0x6ddccfff>
    800005a4:	00112a23          	sw	ra,20(sp)
    800005a8:	01412703          	lw	a4,20(sp)
    800005ac:	122333b7          	lui	t2,0x12233
    800005b0:	0013839b          	addw	t2,t2,1 # 12233001 <_start-0x6ddccfff>
    800005b4:	00771a63          	bne	a4,t2,800005c8 <fail>
    800005b8:	00120213          	add	tp,tp,1 # 1 <_start-0x7fffffff>
    800005bc:	00200293          	li	t0,2
    800005c0:	fc5216e3          	bne	tp,t0,8000058c <test_23+0x8>
    800005c4:	00301e63          	bne	zero,gp,800005e0 <pass>

00000000800005c8 <fail>:
    800005c8:	00018063          	beqz	gp,800005c8 <fail>
    800005cc:	00119193          	sll	gp,gp,0x1
    800005d0:	0011e193          	or	gp,gp,1
    800005d4:	05d00893          	li	a7,93
    800005d8:	00018513          	mv	a0,gp
    800005dc:	00100073          	ebreak

00000000800005e0 <pass>:
    800005e0:	00100193          	li	gp,1
    800005e4:	05d00893          	li	a7,93
    800005e8:	00000513          	li	a0,0
    800005ec:	00100073          	ebreak
    800005f0:	0000                	.2byte	0x0
    800005f2:	0000                	.2byte	0x0
    800005f4:	0000                	.2byte	0x0
    800005f6:	0000                	.2byte	0x0
    800005f8:	0000                	.2byte	0x0
    800005fa:	0000                	.2byte	0x0
    800005fc:	0000                	.2byte	0x0
    800005fe:	0000                	.2byte	0x0
