
rv64ui-p-srl:     file format elf64-littleriscv


Disassembly of section .text.init:

0000000080000000 <_start>:
    80000000:	0480006f          	j	80000048 <reset_vector>

0000000080000004 <trap_vector>:
    80000004:	34202f73          	csrr	t5,mcause
    80000008:	00800f93          	li	t6,8
    8000000c:	03ff0863          	beq	t5,t6,8000003c <write_tohost>
    80000010:	00900f93          	li	t6,9
    80000014:	03ff0463          	beq	t5,t6,8000003c <write_tohost>
    80000018:	00b00f93          	li	t6,11
    8000001c:	03ff0063          	beq	t5,t6,8000003c <write_tohost>
    80000020:	00000f13          	li	t5,0
    80000024:	000f0463          	beqz	t5,8000002c <trap_vector+0x28>
    80000028:	000f0067          	jr	t5
    8000002c:	34202f73          	csrr	t5,mcause
    80000030:	000f5463          	bgez	t5,80000038 <handle_exception>
    80000034:	0040006f          	j	80000038 <handle_exception>

0000000080000038 <handle_exception>:
    80000038:	5391e193          	or	gp,gp,1337

000000008000003c <write_tohost>:
    8000003c:	00001f17          	auipc	t5,0x1
    80000040:	fc3f2223          	sw	gp,-60(t5) # 80001000 <tohost>
    80000044:	ff9ff06f          	j	8000003c <write_tohost>

0000000080000048 <reset_vector>:
    80000048:	00000093          	li	ra,0
    8000004c:	00000113          	li	sp,0
    80000050:	00000193          	li	gp,0
    80000054:	00000213          	li	tp,0
    80000058:	00000293          	li	t0,0
    8000005c:	00000313          	li	t1,0
    80000060:	00000393          	li	t2,0
    80000064:	00000413          	li	s0,0
    80000068:	00000493          	li	s1,0
    8000006c:	00000513          	li	a0,0
    80000070:	00000593          	li	a1,0
    80000074:	00000613          	li	a2,0
    80000078:	00000693          	li	a3,0
    8000007c:	00000713          	li	a4,0
    80000080:	00000793          	li	a5,0
    80000084:	00000813          	li	a6,0
    80000088:	00000893          	li	a7,0
    8000008c:	00000913          	li	s2,0
    80000090:	00000993          	li	s3,0
    80000094:	00000a13          	li	s4,0
    80000098:	00000a93          	li	s5,0
    8000009c:	00000b13          	li	s6,0
    800000a0:	00000b93          	li	s7,0
    800000a4:	00000c13          	li	s8,0
    800000a8:	00000c93          	li	s9,0
    800000ac:	00000d13          	li	s10,0
    800000b0:	00000d93          	li	s11,0
    800000b4:	00000e13          	li	t3,0
    800000b8:	00000e93          	li	t4,0
    800000bc:	00000f13          	li	t5,0
    800000c0:	00000f93          	li	t6,0

00000000800000c4 <test_2>:
    800000c4:	00200193          	li	gp,2
    800000c8:	800000b7          	lui	ra,0x80000
    800000cc:	00000113          	li	sp,0
    800000d0:	0020d733          	srl	a4,ra,sp
    800000d4:	800003b7          	lui	t2,0x80000
    800000d8:	5e771a63          	bne	a4,t2,800006cc <fail>

00000000800000dc <test_3>:
    800000dc:	00300193          	li	gp,3
    800000e0:	800000b7          	lui	ra,0x80000
    800000e4:	00100113          	li	sp,1
    800000e8:	0020d733          	srl	a4,ra,sp
    800000ec:	0010039b          	addw	t2,zero,1
    800000f0:	02139393          	sll	t2,t2,0x21
    800000f4:	fff38393          	add	t2,t2,-1 # ffffffff7fffffff <_end+0xfffffffeffffdfff>
    800000f8:	01e39393          	sll	t2,t2,0x1e
    800000fc:	5c771863          	bne	a4,t2,800006cc <fail>

0000000080000100 <test_4>:
    80000100:	00400193          	li	gp,4
    80000104:	800000b7          	lui	ra,0x80000
    80000108:	00700113          	li	sp,7
    8000010c:	0020d733          	srl	a4,ra,sp
    80000110:	0010039b          	addw	t2,zero,1
    80000114:	02139393          	sll	t2,t2,0x21
    80000118:	fff38393          	add	t2,t2,-1
    8000011c:	01839393          	sll	t2,t2,0x18
    80000120:	5a771663          	bne	a4,t2,800006cc <fail>

0000000080000124 <test_5>:
    80000124:	00500193          	li	gp,5
    80000128:	800000b7          	lui	ra,0x80000
    8000012c:	00e00113          	li	sp,14
    80000130:	0020d733          	srl	a4,ra,sp
    80000134:	0010039b          	addw	t2,zero,1
    80000138:	02139393          	sll	t2,t2,0x21
    8000013c:	fff38393          	add	t2,t2,-1
    80000140:	01139393          	sll	t2,t2,0x11
    80000144:	58771463          	bne	a4,t2,800006cc <fail>

0000000080000148 <test_6>:
    80000148:	00600193          	li	gp,6
    8000014c:	800000b7          	lui	ra,0x80000
    80000150:	0010809b          	addw	ra,ra,1 # ffffffff80000001 <_end+0xfffffffeffffe001>
    80000154:	01f00113          	li	sp,31
    80000158:	0020d733          	srl	a4,ra,sp
    8000015c:	0010039b          	addw	t2,zero,1
    80000160:	02139393          	sll	t2,t2,0x21
    80000164:	fff38393          	add	t2,t2,-1
    80000168:	56771263          	bne	a4,t2,800006cc <fail>

000000008000016c <test_7>:
    8000016c:	00700193          	li	gp,7
    80000170:	fff00093          	li	ra,-1
    80000174:	00000113          	li	sp,0
    80000178:	0020d733          	srl	a4,ra,sp
    8000017c:	fff00393          	li	t2,-1
    80000180:	54771663          	bne	a4,t2,800006cc <fail>

0000000080000184 <test_8>:
    80000184:	00800193          	li	gp,8
    80000188:	fff00093          	li	ra,-1
    8000018c:	00100113          	li	sp,1
    80000190:	0020d733          	srl	a4,ra,sp
    80000194:	fff0039b          	addw	t2,zero,-1
    80000198:	03f39393          	sll	t2,t2,0x3f
    8000019c:	fff38393          	add	t2,t2,-1
    800001a0:	52771663          	bne	a4,t2,800006cc <fail>

00000000800001a4 <test_9>:
    800001a4:	00900193          	li	gp,9
    800001a8:	fff00093          	li	ra,-1
    800001ac:	00700113          	li	sp,7
    800001b0:	0020d733          	srl	a4,ra,sp
    800001b4:	0010039b          	addw	t2,zero,1
    800001b8:	03939393          	sll	t2,t2,0x39
    800001bc:	fff38393          	add	t2,t2,-1
    800001c0:	50771663          	bne	a4,t2,800006cc <fail>

00000000800001c4 <test_10>:
    800001c4:	00a00193          	li	gp,10
    800001c8:	fff00093          	li	ra,-1
    800001cc:	00e00113          	li	sp,14
    800001d0:	0020d733          	srl	a4,ra,sp
    800001d4:	0010039b          	addw	t2,zero,1
    800001d8:	03239393          	sll	t2,t2,0x32
    800001dc:	fff38393          	add	t2,t2,-1
    800001e0:	4e771663          	bne	a4,t2,800006cc <fail>

00000000800001e4 <test_11>:
    800001e4:	00b00193          	li	gp,11
    800001e8:	fff00093          	li	ra,-1
    800001ec:	01f00113          	li	sp,31
    800001f0:	0020d733          	srl	a4,ra,sp
    800001f4:	0010039b          	addw	t2,zero,1
    800001f8:	02139393          	sll	t2,t2,0x21
    800001fc:	fff38393          	add	t2,t2,-1
    80000200:	4c771663          	bne	a4,t2,800006cc <fail>

0000000080000204 <test_12>:
    80000204:	00c00193          	li	gp,12
    80000208:	212120b7          	lui	ra,0x21212
    8000020c:	1210809b          	addw	ra,ra,289 # 21212121 <_start-0x5edededf>
    80000210:	00000113          	li	sp,0
    80000214:	0020d733          	srl	a4,ra,sp
    80000218:	212123b7          	lui	t2,0x21212
    8000021c:	1213839b          	addw	t2,t2,289 # 21212121 <_start-0x5edededf>
    80000220:	4a771663          	bne	a4,t2,800006cc <fail>

0000000080000224 <test_13>:
    80000224:	00d00193          	li	gp,13
    80000228:	212120b7          	lui	ra,0x21212
    8000022c:	1210809b          	addw	ra,ra,289 # 21212121 <_start-0x5edededf>
    80000230:	00100113          	li	sp,1
    80000234:	0020d733          	srl	a4,ra,sp
    80000238:	109093b7          	lui	t2,0x10909
    8000023c:	0903839b          	addw	t2,t2,144 # 10909090 <_start-0x6f6f6f70>
    80000240:	48771663          	bne	a4,t2,800006cc <fail>

0000000080000244 <test_14>:
    80000244:	00e00193          	li	gp,14
    80000248:	212120b7          	lui	ra,0x21212
    8000024c:	1210809b          	addw	ra,ra,289 # 21212121 <_start-0x5edededf>
    80000250:	00700113          	li	sp,7
    80000254:	0020d733          	srl	a4,ra,sp
    80000258:	004243b7          	lui	t2,0x424
    8000025c:	2423839b          	addw	t2,t2,578 # 424242 <_start-0x7fbdbdbe>
    80000260:	46771663          	bne	a4,t2,800006cc <fail>

0000000080000264 <test_15>:
    80000264:	00f00193          	li	gp,15
    80000268:	212120b7          	lui	ra,0x21212
    8000026c:	1210809b          	addw	ra,ra,289 # 21212121 <_start-0x5edededf>
    80000270:	00e00113          	li	sp,14
    80000274:	0020d733          	srl	a4,ra,sp
    80000278:	000083b7          	lui	t2,0x8
    8000027c:	4843839b          	addw	t2,t2,1156 # 8484 <_start-0x7fff7b7c>
    80000280:	44771663          	bne	a4,t2,800006cc <fail>

0000000080000284 <test_16>:
    80000284:	01000193          	li	gp,16
    80000288:	212120b7          	lui	ra,0x21212
    8000028c:	1210809b          	addw	ra,ra,289 # 21212121 <_start-0x5edededf>
    80000290:	01f00113          	li	sp,31
    80000294:	0020d733          	srl	a4,ra,sp
    80000298:	00000393          	li	t2,0
    8000029c:	42771863          	bne	a4,t2,800006cc <fail>

00000000800002a0 <test_17>:
    800002a0:	01100193          	li	gp,17
    800002a4:	212120b7          	lui	ra,0x21212
    800002a8:	1210809b          	addw	ra,ra,289 # 21212121 <_start-0x5edededf>
    800002ac:	fc000113          	li	sp,-64
    800002b0:	0020d733          	srl	a4,ra,sp
    800002b4:	212123b7          	lui	t2,0x21212
    800002b8:	1213839b          	addw	t2,t2,289 # 21212121 <_start-0x5edededf>
    800002bc:	40771863          	bne	a4,t2,800006cc <fail>

00000000800002c0 <test_18>:
    800002c0:	01200193          	li	gp,18
    800002c4:	212120b7          	lui	ra,0x21212
    800002c8:	1210809b          	addw	ra,ra,289 # 21212121 <_start-0x5edededf>
    800002cc:	fc100113          	li	sp,-63
    800002d0:	0020d733          	srl	a4,ra,sp
    800002d4:	109093b7          	lui	t2,0x10909
    800002d8:	0903839b          	addw	t2,t2,144 # 10909090 <_start-0x6f6f6f70>
    800002dc:	3e771863          	bne	a4,t2,800006cc <fail>

00000000800002e0 <test_19>:
    800002e0:	01300193          	li	gp,19
    800002e4:	212120b7          	lui	ra,0x21212
    800002e8:	1210809b          	addw	ra,ra,289 # 21212121 <_start-0x5edededf>
    800002ec:	fc700113          	li	sp,-57
    800002f0:	0020d733          	srl	a4,ra,sp
    800002f4:	004243b7          	lui	t2,0x424
    800002f8:	2423839b          	addw	t2,t2,578 # 424242 <_start-0x7fbdbdbe>
    800002fc:	3c771863          	bne	a4,t2,800006cc <fail>

0000000080000300 <test_20>:
    80000300:	01400193          	li	gp,20
    80000304:	212120b7          	lui	ra,0x21212
    80000308:	1210809b          	addw	ra,ra,289 # 21212121 <_start-0x5edededf>
    8000030c:	fce00113          	li	sp,-50
    80000310:	0020d733          	srl	a4,ra,sp
    80000314:	000083b7          	lui	t2,0x8
    80000318:	4843839b          	addw	t2,t2,1156 # 8484 <_start-0x7fff7b7c>
    8000031c:	3a771863          	bne	a4,t2,800006cc <fail>

0000000080000320 <test_21>:
    80000320:	01500193          	li	gp,21
    80000324:	212120b7          	lui	ra,0x21212
    80000328:	1210809b          	addw	ra,ra,289 # 21212121 <_start-0x5edededf>
    8000032c:	fff00113          	li	sp,-1
    80000330:	0020d733          	srl	a4,ra,sp
    80000334:	00000393          	li	t2,0
    80000338:	38771a63          	bne	a4,t2,800006cc <fail>

000000008000033c <test_22>:
    8000033c:	01600193          	li	gp,22
    80000340:	0010009b          	addw	ra,zero,1
    80000344:	01f09093          	sll	ra,ra,0x1f
    80000348:	00700113          	li	sp,7
    8000034c:	0020d0b3          	srl	ra,ra,sp
    80000350:	010003b7          	lui	t2,0x1000
    80000354:	36709c63          	bne	ra,t2,800006cc <fail>

0000000080000358 <test_23>:
    80000358:	01700193          	li	gp,23
    8000035c:	0010009b          	addw	ra,zero,1
    80000360:	01f09093          	sll	ra,ra,0x1f
    80000364:	00e00113          	li	sp,14
    80000368:	0020d133          	srl	sp,ra,sp
    8000036c:	000203b7          	lui	t2,0x20
    80000370:	34711e63          	bne	sp,t2,800006cc <fail>

0000000080000374 <test_24>:
    80000374:	01800193          	li	gp,24
    80000378:	00700093          	li	ra,7
    8000037c:	0010d0b3          	srl	ra,ra,ra
    80000380:	00000393          	li	t2,0
    80000384:	34709463          	bne	ra,t2,800006cc <fail>

0000000080000388 <test_25>:
    80000388:	01900193          	li	gp,25
    8000038c:	00000213          	li	tp,0
    80000390:	0010009b          	addw	ra,zero,1
    80000394:	01f09093          	sll	ra,ra,0x1f
    80000398:	00700113          	li	sp,7
    8000039c:	0020d733          	srl	a4,ra,sp
    800003a0:	00070313          	mv	t1,a4
    800003a4:	00120213          	add	tp,tp,1 # 1 <_start-0x7fffffff>
    800003a8:	00200293          	li	t0,2
    800003ac:	fe5212e3          	bne	tp,t0,80000390 <test_25+0x8>
    800003b0:	010003b7          	lui	t2,0x1000
    800003b4:	30731c63          	bne	t1,t2,800006cc <fail>

00000000800003b8 <test_26>:
    800003b8:	01a00193          	li	gp,26
    800003bc:	00000213          	li	tp,0
    800003c0:	0010009b          	addw	ra,zero,1
    800003c4:	01f09093          	sll	ra,ra,0x1f
    800003c8:	00e00113          	li	sp,14
    800003cc:	0020d733          	srl	a4,ra,sp
    800003d0:	00000013          	nop
    800003d4:	00070313          	mv	t1,a4
    800003d8:	00120213          	add	tp,tp,1 # 1 <_start-0x7fffffff>
    800003dc:	00200293          	li	t0,2
    800003e0:	fe5210e3          	bne	tp,t0,800003c0 <test_26+0x8>
    800003e4:	000203b7          	lui	t2,0x20
    800003e8:	2e731263          	bne	t1,t2,800006cc <fail>

00000000800003ec <test_27>:
    800003ec:	01b00193          	li	gp,27
    800003f0:	00000213          	li	tp,0
    800003f4:	0010009b          	addw	ra,zero,1
    800003f8:	01f09093          	sll	ra,ra,0x1f
    800003fc:	01f00113          	li	sp,31
    80000400:	0020d733          	srl	a4,ra,sp
    80000404:	00000013          	nop
    80000408:	00000013          	nop
    8000040c:	00070313          	mv	t1,a4
    80000410:	00120213          	add	tp,tp,1 # 1 <_start-0x7fffffff>
    80000414:	00200293          	li	t0,2
    80000418:	fc521ee3          	bne	tp,t0,800003f4 <test_27+0x8>
    8000041c:	00100393          	li	t2,1
    80000420:	2a731663          	bne	t1,t2,800006cc <fail>

0000000080000424 <test_28>:
    80000424:	01c00193          	li	gp,28
    80000428:	00000213          	li	tp,0
    8000042c:	0010009b          	addw	ra,zero,1
    80000430:	01f09093          	sll	ra,ra,0x1f
    80000434:	00700113          	li	sp,7
    80000438:	0020d733          	srl	a4,ra,sp
    8000043c:	00120213          	add	tp,tp,1 # 1 <_start-0x7fffffff>
    80000440:	00200293          	li	t0,2
    80000444:	fe5214e3          	bne	tp,t0,8000042c <test_28+0x8>
    80000448:	010003b7          	lui	t2,0x1000
    8000044c:	28771063          	bne	a4,t2,800006cc <fail>

0000000080000450 <test_29>:
    80000450:	01d00193          	li	gp,29
    80000454:	00000213          	li	tp,0
    80000458:	0010009b          	addw	ra,zero,1
    8000045c:	01f09093          	sll	ra,ra,0x1f
    80000460:	00e00113          	li	sp,14
    80000464:	00000013          	nop
    80000468:	0020d733          	srl	a4,ra,sp
    8000046c:	00120213          	add	tp,tp,1 # 1 <_start-0x7fffffff>
    80000470:	00200293          	li	t0,2
    80000474:	fe5212e3          	bne	tp,t0,80000458 <test_29+0x8>
    80000478:	000203b7          	lui	t2,0x20
    8000047c:	24771863          	bne	a4,t2,800006cc <fail>

0000000080000480 <test_30>:
    80000480:	01e00193          	li	gp,30
    80000484:	00000213          	li	tp,0
    80000488:	0010009b          	addw	ra,zero,1
    8000048c:	01f09093          	sll	ra,ra,0x1f
    80000490:	01f00113          	li	sp,31
    80000494:	00000013          	nop
    80000498:	00000013          	nop
    8000049c:	0020d733          	srl	a4,ra,sp
    800004a0:	00120213          	add	tp,tp,1 # 1 <_start-0x7fffffff>
    800004a4:	00200293          	li	t0,2
    800004a8:	fe5210e3          	bne	tp,t0,80000488 <test_30+0x8>
    800004ac:	00100393          	li	t2,1
    800004b0:	20771e63          	bne	a4,t2,800006cc <fail>

00000000800004b4 <test_31>:
    800004b4:	01f00193          	li	gp,31
    800004b8:	00000213          	li	tp,0
    800004bc:	0010009b          	addw	ra,zero,1
    800004c0:	01f09093          	sll	ra,ra,0x1f
    800004c4:	00000013          	nop
    800004c8:	00700113          	li	sp,7
    800004cc:	0020d733          	srl	a4,ra,sp
    800004d0:	00120213          	add	tp,tp,1 # 1 <_start-0x7fffffff>
    800004d4:	00200293          	li	t0,2
    800004d8:	fe5212e3          	bne	tp,t0,800004bc <test_31+0x8>
    800004dc:	010003b7          	lui	t2,0x1000
    800004e0:	1e771663          	bne	a4,t2,800006cc <fail>

00000000800004e4 <test_32>:
    800004e4:	02000193          	li	gp,32
    800004e8:	00000213          	li	tp,0
    800004ec:	0010009b          	addw	ra,zero,1
    800004f0:	01f09093          	sll	ra,ra,0x1f
    800004f4:	00000013          	nop
    800004f8:	00e00113          	li	sp,14
    800004fc:	00000013          	nop
    80000500:	0020d733          	srl	a4,ra,sp
    80000504:	00120213          	add	tp,tp,1 # 1 <_start-0x7fffffff>
    80000508:	00200293          	li	t0,2
    8000050c:	fe5210e3          	bne	tp,t0,800004ec <test_32+0x8>
    80000510:	000203b7          	lui	t2,0x20
    80000514:	1a771c63          	bne	a4,t2,800006cc <fail>

0000000080000518 <test_33>:
    80000518:	02100193          	li	gp,33
    8000051c:	00000213          	li	tp,0
    80000520:	0010009b          	addw	ra,zero,1
    80000524:	01f09093          	sll	ra,ra,0x1f
    80000528:	00000013          	nop
    8000052c:	00000013          	nop
    80000530:	01f00113          	li	sp,31
    80000534:	0020d733          	srl	a4,ra,sp
    80000538:	00120213          	add	tp,tp,1 # 1 <_start-0x7fffffff>
    8000053c:	00200293          	li	t0,2
    80000540:	fe5210e3          	bne	tp,t0,80000520 <test_33+0x8>
    80000544:	00100393          	li	t2,1
    80000548:	18771263          	bne	a4,t2,800006cc <fail>

000000008000054c <test_34>:
    8000054c:	02200193          	li	gp,34
    80000550:	00000213          	li	tp,0
    80000554:	00700113          	li	sp,7
    80000558:	0010009b          	addw	ra,zero,1
    8000055c:	01f09093          	sll	ra,ra,0x1f
    80000560:	0020d733          	srl	a4,ra,sp
    80000564:	00120213          	add	tp,tp,1 # 1 <_start-0x7fffffff>
    80000568:	00200293          	li	t0,2
    8000056c:	fe5214e3          	bne	tp,t0,80000554 <test_34+0x8>
    80000570:	010003b7          	lui	t2,0x1000
    80000574:	14771c63          	bne	a4,t2,800006cc <fail>

0000000080000578 <test_35>:
    80000578:	02300193          	li	gp,35
    8000057c:	00000213          	li	tp,0
    80000580:	00e00113          	li	sp,14
    80000584:	0010009b          	addw	ra,zero,1
    80000588:	01f09093          	sll	ra,ra,0x1f
    8000058c:	00000013          	nop
    80000590:	0020d733          	srl	a4,ra,sp
    80000594:	00120213          	add	tp,tp,1 # 1 <_start-0x7fffffff>
    80000598:	00200293          	li	t0,2
    8000059c:	fe5212e3          	bne	tp,t0,80000580 <test_35+0x8>
    800005a0:	000203b7          	lui	t2,0x20
    800005a4:	12771463          	bne	a4,t2,800006cc <fail>

00000000800005a8 <test_36>:
    800005a8:	02400193          	li	gp,36
    800005ac:	00000213          	li	tp,0
    800005b0:	01f00113          	li	sp,31
    800005b4:	0010009b          	addw	ra,zero,1
    800005b8:	01f09093          	sll	ra,ra,0x1f
    800005bc:	00000013          	nop
    800005c0:	00000013          	nop
    800005c4:	0020d733          	srl	a4,ra,sp
    800005c8:	00120213          	add	tp,tp,1 # 1 <_start-0x7fffffff>
    800005cc:	00200293          	li	t0,2
    800005d0:	fe5210e3          	bne	tp,t0,800005b0 <test_36+0x8>
    800005d4:	00100393          	li	t2,1
    800005d8:	0e771a63          	bne	a4,t2,800006cc <fail>

00000000800005dc <test_37>:
    800005dc:	02500193          	li	gp,37
    800005e0:	00000213          	li	tp,0
    800005e4:	00700113          	li	sp,7
    800005e8:	00000013          	nop
    800005ec:	0010009b          	addw	ra,zero,1
    800005f0:	01f09093          	sll	ra,ra,0x1f
    800005f4:	0020d733          	srl	a4,ra,sp
    800005f8:	00120213          	add	tp,tp,1 # 1 <_start-0x7fffffff>
    800005fc:	00200293          	li	t0,2
    80000600:	fe5212e3          	bne	tp,t0,800005e4 <test_37+0x8>
    80000604:	010003b7          	lui	t2,0x1000
    80000608:	0c771263          	bne	a4,t2,800006cc <fail>

000000008000060c <test_38>:
    8000060c:	02600193          	li	gp,38
    80000610:	00000213          	li	tp,0
    80000614:	00e00113          	li	sp,14
    80000618:	00000013          	nop
    8000061c:	0010009b          	addw	ra,zero,1
    80000620:	01f09093          	sll	ra,ra,0x1f
    80000624:	00000013          	nop
    80000628:	0020d733          	srl	a4,ra,sp
    8000062c:	00120213          	add	tp,tp,1 # 1 <_start-0x7fffffff>
    80000630:	00200293          	li	t0,2
    80000634:	fe5210e3          	bne	tp,t0,80000614 <test_38+0x8>
    80000638:	000203b7          	lui	t2,0x20
    8000063c:	08771863          	bne	a4,t2,800006cc <fail>

0000000080000640 <test_39>:
    80000640:	02700193          	li	gp,39
    80000644:	00000213          	li	tp,0
    80000648:	01f00113          	li	sp,31
    8000064c:	00000013          	nop
    80000650:	00000013          	nop
    80000654:	0010009b          	addw	ra,zero,1
    80000658:	01f09093          	sll	ra,ra,0x1f
    8000065c:	0020d733          	srl	a4,ra,sp
    80000660:	00120213          	add	tp,tp,1 # 1 <_start-0x7fffffff>
    80000664:	00200293          	li	t0,2
    80000668:	fe5210e3          	bne	tp,t0,80000648 <test_39+0x8>
    8000066c:	00100393          	li	t2,1
    80000670:	04771e63          	bne	a4,t2,800006cc <fail>

0000000080000674 <test_40>:
    80000674:	02800193          	li	gp,40
    80000678:	00f00093          	li	ra,15
    8000067c:	00105133          	srl	sp,zero,ra
    80000680:	00000393          	li	t2,0
    80000684:	04711463          	bne	sp,t2,800006cc <fail>

0000000080000688 <test_41>:
    80000688:	02900193          	li	gp,41
    8000068c:	02000093          	li	ra,32
    80000690:	0000d133          	srl	sp,ra,zero
    80000694:	02000393          	li	t2,32
    80000698:	02711a63          	bne	sp,t2,800006cc <fail>

000000008000069c <test_42>:
    8000069c:	02a00193          	li	gp,42
    800006a0:	000050b3          	srl	ra,zero,zero
    800006a4:	00000393          	li	t2,0
    800006a8:	02709263          	bne	ra,t2,800006cc <fail>

00000000800006ac <test_43>:
    800006ac:	02b00193          	li	gp,43
    800006b0:	40000093          	li	ra,1024
    800006b4:	00001137          	lui	sp,0x1
    800006b8:	8001011b          	addw	sp,sp,-2048 # 800 <_start-0x7ffff800>
    800006bc:	0020d033          	srl	zero,ra,sp
    800006c0:	00000393          	li	t2,0
    800006c4:	00701463          	bne	zero,t2,800006cc <fail>
    800006c8:	00301e63          	bne	zero,gp,800006e4 <pass>

00000000800006cc <fail>:
    800006cc:	00018063          	beqz	gp,800006cc <fail>
    800006d0:	00119193          	sll	gp,gp,0x1
    800006d4:	0011e193          	or	gp,gp,1
    800006d8:	05d00893          	li	a7,93
    800006dc:	00018513          	mv	a0,gp
    800006e0:	00100073          	ebreak

00000000800006e4 <pass>:
    800006e4:	00100193          	li	gp,1
    800006e8:	05d00893          	li	a7,93
    800006ec:	00000513          	li	a0,0
    800006f0:	00100073          	ebreak
    800006f4:	0000                	.2byte	0x0
    800006f6:	0000                	.2byte	0x0
    800006f8:	0000                	.2byte	0x0
    800006fa:	0000                	.2byte	0x0
    800006fc:	0000                	.2byte	0x0
    800006fe:	0000                	.2byte	0x0
