
rv64ui-p-bgeu:     file format elf64-littleriscv


Disassembly of section .text.init:

0000000080000000 <_start>:
    80000000:	0480006f          	j	80000048 <reset_vector>

0000000080000004 <trap_vector>:
    80000004:	34202f73          	csrr	t5,mcause
    80000008:	00800f93          	li	t6,8
    8000000c:	03ff0863          	beq	t5,t6,8000003c <write_tohost>
    80000010:	00900f93          	li	t6,9
    80000014:	03ff0463          	beq	t5,t6,8000003c <write_tohost>
    80000018:	00b00f93          	li	t6,11
    8000001c:	03ff0063          	beq	t5,t6,8000003c <write_tohost>
    80000020:	00000f13          	li	t5,0
    80000024:	000f0463          	beqz	t5,8000002c <trap_vector+0x28>
    80000028:	000f0067          	jr	t5
    8000002c:	34202f73          	csrr	t5,mcause
    80000030:	000f5463          	bgez	t5,80000038 <handle_exception>
    80000034:	0040006f          	j	80000038 <handle_exception>

0000000080000038 <handle_exception>:
    80000038:	5391e193          	or	gp,gp,1337

000000008000003c <write_tohost>:
    8000003c:	00001f17          	auipc	t5,0x1
    80000040:	fc3f2223          	sw	gp,-60(t5) # 80001000 <tohost>
    80000044:	ff9ff06f          	j	8000003c <write_tohost>

0000000080000048 <reset_vector>:
    80000048:	00000093          	li	ra,0
    8000004c:	00000113          	li	sp,0
    80000050:	00000193          	li	gp,0
    80000054:	00000213          	li	tp,0
    80000058:	00000293          	li	t0,0
    8000005c:	00000313          	li	t1,0
    80000060:	00000393          	li	t2,0
    80000064:	00000413          	li	s0,0
    80000068:	00000493          	li	s1,0
    8000006c:	00000513          	li	a0,0
    80000070:	00000593          	li	a1,0
    80000074:	00000613          	li	a2,0
    80000078:	00000693          	li	a3,0
    8000007c:	00000713          	li	a4,0
    80000080:	00000793          	li	a5,0
    80000084:	00000813          	li	a6,0
    80000088:	00000893          	li	a7,0
    8000008c:	00000913          	li	s2,0
    80000090:	00000993          	li	s3,0
    80000094:	00000a13          	li	s4,0
    80000098:	00000a93          	li	s5,0
    8000009c:	00000b13          	li	s6,0
    800000a0:	00000b93          	li	s7,0
    800000a4:	00000c13          	li	s8,0
    800000a8:	00000c93          	li	s9,0
    800000ac:	00000d13          	li	s10,0
    800000b0:	00000d93          	li	s11,0
    800000b4:	00000e13          	li	t3,0
    800000b8:	00000e93          	li	t4,0
    800000bc:	00000f13          	li	t5,0
    800000c0:	00000f93          	li	t6,0

00000000800000c4 <test_2>:
    800000c4:	00200193          	li	gp,2
    800000c8:	00000093          	li	ra,0
    800000cc:	00000113          	li	sp,0
    800000d0:	0020f663          	bgeu	ra,sp,800000dc <test_2+0x18>
    800000d4:	3e301463          	bne	zero,gp,800004bc <fail>
    800000d8:	00301663          	bne	zero,gp,800000e4 <test_3>
    800000dc:	fe20fee3          	bgeu	ra,sp,800000d8 <test_2+0x14>
    800000e0:	3c301e63          	bne	zero,gp,800004bc <fail>

00000000800000e4 <test_3>:
    800000e4:	00300193          	li	gp,3
    800000e8:	00100093          	li	ra,1
    800000ec:	00100113          	li	sp,1
    800000f0:	0020f663          	bgeu	ra,sp,800000fc <test_3+0x18>
    800000f4:	3c301463          	bne	zero,gp,800004bc <fail>
    800000f8:	00301663          	bne	zero,gp,80000104 <test_4>
    800000fc:	fe20fee3          	bgeu	ra,sp,800000f8 <test_3+0x14>
    80000100:	3a301e63          	bne	zero,gp,800004bc <fail>

0000000080000104 <test_4>:
    80000104:	00400193          	li	gp,4
    80000108:	0010009b          	addw	ra,zero,1
    8000010c:	02009093          	sll	ra,ra,0x20
    80000110:	fff08093          	add	ra,ra,-1
    80000114:	0010011b          	addw	sp,zero,1
    80000118:	02011113          	sll	sp,sp,0x20
    8000011c:	fff10113          	add	sp,sp,-1
    80000120:	0020f663          	bgeu	ra,sp,8000012c <test_4+0x28>
    80000124:	38301c63          	bne	zero,gp,800004bc <fail>
    80000128:	00301663          	bne	zero,gp,80000134 <test_5>
    8000012c:	fe20fee3          	bgeu	ra,sp,80000128 <test_4+0x24>
    80000130:	38301663          	bne	zero,gp,800004bc <fail>

0000000080000134 <test_5>:
    80000134:	00500193          	li	gp,5
    80000138:	00100093          	li	ra,1
    8000013c:	00000113          	li	sp,0
    80000140:	0020f663          	bgeu	ra,sp,8000014c <test_5+0x18>
    80000144:	36301c63          	bne	zero,gp,800004bc <fail>
    80000148:	00301663          	bne	zero,gp,80000154 <test_6>
    8000014c:	fe20fee3          	bgeu	ra,sp,80000148 <test_5+0x14>
    80000150:	36301663          	bne	zero,gp,800004bc <fail>

0000000080000154 <test_6>:
    80000154:	00600193          	li	gp,6
    80000158:	0010009b          	addw	ra,zero,1
    8000015c:	02009093          	sll	ra,ra,0x20
    80000160:	fff08093          	add	ra,ra,-1
    80000164:	0010011b          	addw	sp,zero,1
    80000168:	02011113          	sll	sp,sp,0x20
    8000016c:	ffe10113          	add	sp,sp,-2
    80000170:	0020f663          	bgeu	ra,sp,8000017c <test_6+0x28>
    80000174:	34301463          	bne	zero,gp,800004bc <fail>
    80000178:	00301663          	bne	zero,gp,80000184 <test_7>
    8000017c:	fe20fee3          	bgeu	ra,sp,80000178 <test_6+0x24>
    80000180:	32301e63          	bne	zero,gp,800004bc <fail>

0000000080000184 <test_7>:
    80000184:	00700193          	li	gp,7
    80000188:	0010009b          	addw	ra,zero,1
    8000018c:	02009093          	sll	ra,ra,0x20
    80000190:	fff08093          	add	ra,ra,-1
    80000194:	00000113          	li	sp,0
    80000198:	0020f663          	bgeu	ra,sp,800001a4 <test_7+0x20>
    8000019c:	32301063          	bne	zero,gp,800004bc <fail>
    800001a0:	00301663          	bne	zero,gp,800001ac <test_8>
    800001a4:	fe20fee3          	bgeu	ra,sp,800001a0 <test_7+0x1c>
    800001a8:	30301a63          	bne	zero,gp,800004bc <fail>

00000000800001ac <test_8>:
    800001ac:	00800193          	li	gp,8
    800001b0:	00000093          	li	ra,0
    800001b4:	00100113          	li	sp,1
    800001b8:	0020f463          	bgeu	ra,sp,800001c0 <test_8+0x14>
    800001bc:	00301463          	bne	zero,gp,800001c4 <test_8+0x18>
    800001c0:	2e301e63          	bne	zero,gp,800004bc <fail>
    800001c4:	fe20fee3          	bgeu	ra,sp,800001c0 <test_8+0x14>

00000000800001c8 <test_9>:
    800001c8:	00900193          	li	gp,9
    800001cc:	0010009b          	addw	ra,zero,1
    800001d0:	02009093          	sll	ra,ra,0x20
    800001d4:	ffe08093          	add	ra,ra,-2
    800001d8:	0010011b          	addw	sp,zero,1
    800001dc:	02011113          	sll	sp,sp,0x20
    800001e0:	fff10113          	add	sp,sp,-1
    800001e4:	0020f463          	bgeu	ra,sp,800001ec <test_9+0x24>
    800001e8:	00301463          	bne	zero,gp,800001f0 <test_9+0x28>
    800001ec:	2c301863          	bne	zero,gp,800004bc <fail>
    800001f0:	fe20fee3          	bgeu	ra,sp,800001ec <test_9+0x24>

00000000800001f4 <test_10>:
    800001f4:	00a00193          	li	gp,10
    800001f8:	00000093          	li	ra,0
    800001fc:	0010011b          	addw	sp,zero,1
    80000200:	02011113          	sll	sp,sp,0x20
    80000204:	fff10113          	add	sp,sp,-1
    80000208:	0020f463          	bgeu	ra,sp,80000210 <test_10+0x1c>
    8000020c:	00301463          	bne	zero,gp,80000214 <test_10+0x20>
    80000210:	2a301663          	bne	zero,gp,800004bc <fail>
    80000214:	fe20fee3          	bgeu	ra,sp,80000210 <test_10+0x1c>

0000000080000218 <test_11>:
    80000218:	00b00193          	li	gp,11
    8000021c:	800000b7          	lui	ra,0x80000
    80000220:	fff0809b          	addw	ra,ra,-1 # 7fffffff <_start-0x1>
    80000224:	0010011b          	addw	sp,zero,1
    80000228:	01f11113          	sll	sp,sp,0x1f
    8000022c:	0020f463          	bgeu	ra,sp,80000234 <test_11+0x1c>
    80000230:	00301463          	bne	zero,gp,80000238 <test_11+0x20>
    80000234:	28301463          	bne	zero,gp,800004bc <fail>
    80000238:	fe20fee3          	bgeu	ra,sp,80000234 <test_11+0x1c>

000000008000023c <test_12>:
    8000023c:	00c00193          	li	gp,12
    80000240:	00000213          	li	tp,0
    80000244:	00f0009b          	addw	ra,zero,15
    80000248:	01c09093          	sll	ra,ra,0x1c
    8000024c:	fff08093          	add	ra,ra,-1
    80000250:	00f0011b          	addw	sp,zero,15
    80000254:	01c11113          	sll	sp,sp,0x1c
    80000258:	2620f263          	bgeu	ra,sp,800004bc <fail>
    8000025c:	00120213          	add	tp,tp,1 # 1 <_start-0x7fffffff>
    80000260:	00200293          	li	t0,2
    80000264:	fe5210e3          	bne	tp,t0,80000244 <test_12+0x8>

0000000080000268 <test_13>:
    80000268:	00d00193          	li	gp,13
    8000026c:	00000213          	li	tp,0
    80000270:	00f0009b          	addw	ra,zero,15
    80000274:	01c09093          	sll	ra,ra,0x1c
    80000278:	fff08093          	add	ra,ra,-1
    8000027c:	00f0011b          	addw	sp,zero,15
    80000280:	01c11113          	sll	sp,sp,0x1c
    80000284:	00000013          	nop
    80000288:	2220fa63          	bgeu	ra,sp,800004bc <fail>
    8000028c:	00120213          	add	tp,tp,1 # 1 <_start-0x7fffffff>
    80000290:	00200293          	li	t0,2
    80000294:	fc521ee3          	bne	tp,t0,80000270 <test_13+0x8>

0000000080000298 <test_14>:
    80000298:	00e00193          	li	gp,14
    8000029c:	00000213          	li	tp,0
    800002a0:	00f0009b          	addw	ra,zero,15
    800002a4:	01c09093          	sll	ra,ra,0x1c
    800002a8:	fff08093          	add	ra,ra,-1
    800002ac:	00f0011b          	addw	sp,zero,15
    800002b0:	01c11113          	sll	sp,sp,0x1c
    800002b4:	00000013          	nop
    800002b8:	00000013          	nop
    800002bc:	2020f063          	bgeu	ra,sp,800004bc <fail>
    800002c0:	00120213          	add	tp,tp,1 # 1 <_start-0x7fffffff>
    800002c4:	00200293          	li	t0,2
    800002c8:	fc521ce3          	bne	tp,t0,800002a0 <test_14+0x8>

00000000800002cc <test_15>:
    800002cc:	00f00193          	li	gp,15
    800002d0:	00000213          	li	tp,0
    800002d4:	00f0009b          	addw	ra,zero,15
    800002d8:	01c09093          	sll	ra,ra,0x1c
    800002dc:	fff08093          	add	ra,ra,-1
    800002e0:	00000013          	nop
    800002e4:	00f0011b          	addw	sp,zero,15
    800002e8:	01c11113          	sll	sp,sp,0x1c
    800002ec:	1c20f863          	bgeu	ra,sp,800004bc <fail>
    800002f0:	00120213          	add	tp,tp,1 # 1 <_start-0x7fffffff>
    800002f4:	00200293          	li	t0,2
    800002f8:	fc521ee3          	bne	tp,t0,800002d4 <test_15+0x8>

00000000800002fc <test_16>:
    800002fc:	01000193          	li	gp,16
    80000300:	00000213          	li	tp,0
    80000304:	00f0009b          	addw	ra,zero,15
    80000308:	01c09093          	sll	ra,ra,0x1c
    8000030c:	fff08093          	add	ra,ra,-1
    80000310:	00000013          	nop
    80000314:	00f0011b          	addw	sp,zero,15
    80000318:	01c11113          	sll	sp,sp,0x1c
    8000031c:	00000013          	nop
    80000320:	1820fe63          	bgeu	ra,sp,800004bc <fail>
    80000324:	00120213          	add	tp,tp,1 # 1 <_start-0x7fffffff>
    80000328:	00200293          	li	t0,2
    8000032c:	fc521ce3          	bne	tp,t0,80000304 <test_16+0x8>

0000000080000330 <test_17>:
    80000330:	01100193          	li	gp,17
    80000334:	00000213          	li	tp,0
    80000338:	00f0009b          	addw	ra,zero,15
    8000033c:	01c09093          	sll	ra,ra,0x1c
    80000340:	fff08093          	add	ra,ra,-1
    80000344:	00000013          	nop
    80000348:	00000013          	nop
    8000034c:	00f0011b          	addw	sp,zero,15
    80000350:	01c11113          	sll	sp,sp,0x1c
    80000354:	1620f463          	bgeu	ra,sp,800004bc <fail>
    80000358:	00120213          	add	tp,tp,1 # 1 <_start-0x7fffffff>
    8000035c:	00200293          	li	t0,2
    80000360:	fc521ce3          	bne	tp,t0,80000338 <test_17+0x8>

0000000080000364 <test_18>:
    80000364:	01200193          	li	gp,18
    80000368:	00000213          	li	tp,0
    8000036c:	00f0009b          	addw	ra,zero,15
    80000370:	01c09093          	sll	ra,ra,0x1c
    80000374:	fff08093          	add	ra,ra,-1
    80000378:	00f0011b          	addw	sp,zero,15
    8000037c:	01c11113          	sll	sp,sp,0x1c
    80000380:	1220fe63          	bgeu	ra,sp,800004bc <fail>
    80000384:	00120213          	add	tp,tp,1 # 1 <_start-0x7fffffff>
    80000388:	00200293          	li	t0,2
    8000038c:	fe5210e3          	bne	tp,t0,8000036c <test_18+0x8>

0000000080000390 <test_19>:
    80000390:	01300193          	li	gp,19
    80000394:	00000213          	li	tp,0
    80000398:	00f0009b          	addw	ra,zero,15
    8000039c:	01c09093          	sll	ra,ra,0x1c
    800003a0:	fff08093          	add	ra,ra,-1
    800003a4:	00f0011b          	addw	sp,zero,15
    800003a8:	01c11113          	sll	sp,sp,0x1c
    800003ac:	00000013          	nop
    800003b0:	1020f663          	bgeu	ra,sp,800004bc <fail>
    800003b4:	00120213          	add	tp,tp,1 # 1 <_start-0x7fffffff>
    800003b8:	00200293          	li	t0,2
    800003bc:	fc521ee3          	bne	tp,t0,80000398 <test_19+0x8>

00000000800003c0 <test_20>:
    800003c0:	01400193          	li	gp,20
    800003c4:	00000213          	li	tp,0
    800003c8:	00f0009b          	addw	ra,zero,15
    800003cc:	01c09093          	sll	ra,ra,0x1c
    800003d0:	fff08093          	add	ra,ra,-1
    800003d4:	00f0011b          	addw	sp,zero,15
    800003d8:	01c11113          	sll	sp,sp,0x1c
    800003dc:	00000013          	nop
    800003e0:	00000013          	nop
    800003e4:	0c20fc63          	bgeu	ra,sp,800004bc <fail>
    800003e8:	00120213          	add	tp,tp,1 # 1 <_start-0x7fffffff>
    800003ec:	00200293          	li	t0,2
    800003f0:	fc521ce3          	bne	tp,t0,800003c8 <test_20+0x8>

00000000800003f4 <test_21>:
    800003f4:	01500193          	li	gp,21
    800003f8:	00000213          	li	tp,0
    800003fc:	00f0009b          	addw	ra,zero,15
    80000400:	01c09093          	sll	ra,ra,0x1c
    80000404:	fff08093          	add	ra,ra,-1
    80000408:	00000013          	nop
    8000040c:	00f0011b          	addw	sp,zero,15
    80000410:	01c11113          	sll	sp,sp,0x1c
    80000414:	0a20f463          	bgeu	ra,sp,800004bc <fail>
    80000418:	00120213          	add	tp,tp,1 # 1 <_start-0x7fffffff>
    8000041c:	00200293          	li	t0,2
    80000420:	fc521ee3          	bne	tp,t0,800003fc <test_21+0x8>

0000000080000424 <test_22>:
    80000424:	01600193          	li	gp,22
    80000428:	00000213          	li	tp,0
    8000042c:	00f0009b          	addw	ra,zero,15
    80000430:	01c09093          	sll	ra,ra,0x1c
    80000434:	fff08093          	add	ra,ra,-1
    80000438:	00000013          	nop
    8000043c:	00f0011b          	addw	sp,zero,15
    80000440:	01c11113          	sll	sp,sp,0x1c
    80000444:	00000013          	nop
    80000448:	0620fa63          	bgeu	ra,sp,800004bc <fail>
    8000044c:	00120213          	add	tp,tp,1 # 1 <_start-0x7fffffff>
    80000450:	00200293          	li	t0,2
    80000454:	fc521ce3          	bne	tp,t0,8000042c <test_22+0x8>

0000000080000458 <test_23>:
    80000458:	01700193          	li	gp,23
    8000045c:	00000213          	li	tp,0
    80000460:	00f0009b          	addw	ra,zero,15
    80000464:	01c09093          	sll	ra,ra,0x1c
    80000468:	fff08093          	add	ra,ra,-1
    8000046c:	00000013          	nop
    80000470:	00000013          	nop
    80000474:	00f0011b          	addw	sp,zero,15
    80000478:	01c11113          	sll	sp,sp,0x1c
    8000047c:	0420f063          	bgeu	ra,sp,800004bc <fail>
    80000480:	00120213          	add	tp,tp,1 # 1 <_start-0x7fffffff>
    80000484:	00200293          	li	t0,2
    80000488:	fc521ce3          	bne	tp,t0,80000460 <test_23+0x8>

000000008000048c <test_24>:
    8000048c:	01800193          	li	gp,24
    80000490:	00100093          	li	ra,1
    80000494:	0000fa63          	bgeu	ra,zero,800004a8 <test_24+0x1c>
    80000498:	00108093          	add	ra,ra,1
    8000049c:	00108093          	add	ra,ra,1
    800004a0:	00108093          	add	ra,ra,1
    800004a4:	00108093          	add	ra,ra,1
    800004a8:	00108093          	add	ra,ra,1
    800004ac:	00108093          	add	ra,ra,1
    800004b0:	00300393          	li	t2,3
    800004b4:	00709463          	bne	ra,t2,800004bc <fail>
    800004b8:	00301e63          	bne	zero,gp,800004d4 <pass>

00000000800004bc <fail>:
    800004bc:	00018063          	beqz	gp,800004bc <fail>
    800004c0:	00119193          	sll	gp,gp,0x1
    800004c4:	0011e193          	or	gp,gp,1
    800004c8:	05d00893          	li	a7,93
    800004cc:	00018513          	mv	a0,gp
    800004d0:	00100073          	ebreak

00000000800004d4 <pass>:
    800004d4:	00100193          	li	gp,1
    800004d8:	05d00893          	li	a7,93
    800004dc:	00000513          	li	a0,0
    800004e0:	00100073          	ebreak
    800004e4:	0000                	.2byte	0x0
    800004e6:	0000                	.2byte	0x0
    800004e8:	0000                	.2byte	0x0
    800004ea:	0000                	.2byte	0x0
    800004ec:	0000                	.2byte	0x0
    800004ee:	0000                	.2byte	0x0
    800004f0:	0000                	.2byte	0x0
    800004f2:	0000                	.2byte	0x0
    800004f4:	0000                	.2byte	0x0
    800004f6:	0000                	.2byte	0x0
    800004f8:	0000                	.2byte	0x0
    800004fa:	0000                	.2byte	0x0
    800004fc:	0000                	.2byte	0x0
    800004fe:	0000                	.2byte	0x0
